ARM GAS  C:\Users\iamna\AppData\Local\Temp\ccpj2M44.s 			page 1


   1              		.syntax unified
   2              		.cpu cortex-m3
   3              		.fpu softvfp
   4              		.eabi_attribute 20, 1
   5              		.eabi_attribute 21, 1
   6              		.eabi_attribute 23, 3
   7              		.eabi_attribute 24, 1
   8              		.eabi_attribute 25, 1
   9              		.eabi_attribute 26, 1
  10              		.eabi_attribute 30, 1
  11              		.eabi_attribute 34, 1
  12              		.eabi_attribute 18, 4
  13              		.thumb
  14              		.syntax unified
  15              		.file	"main.c"
  16              		.text
  17              	.Ltext0:
  18              		.cfi_sections	.debug_frame
  19              		.section	.text.button_press_isr,"ax",%progbits
  20              		.align	2
  21              		.global	button_press_isr
  22              		.thumb
  23              		.thumb_func
  24              		.type	button_press_isr, %function
  25              	button_press_isr:
  26              	.LFB65:
  27              		.file 1 "main.c"
   1:main.c        **** /* ========================================
   2:main.c        ****  *
   3:main.c        ****  * Copyright Nadim Ahmed, Metropolia University of Applied Science, Finland, 2024
   4:main.c        ****  * 
   5:main.c        ****  * April 16, 2024
   6:main.c        ****  *
   7:main.c        ****  * PSoC Design Course 2024: Exercise 2, PWM, Interrupte and Servo
   8:main.c        ****  *
   9:main.c        ****  * Servo motor run  and speed change on button press {4 speed mode Stop, Full speed, Medium speed, 
  10:main.c        ****  *
  11:main.c        ****  * CC-NA-SA 4.0
  12:main.c        ****  *
  13:main.c        ****  * ========================================
  14:main.c        **** */
  15:main.c        **** #include "project.h"
  16:main.c        **** #include <stdio.h>
  17:main.c        **** #include <stdbool.h>
  18:main.c        **** 
  19:main.c        **** /* Project Defines */
  20:main.c        **** #define MAX_SPEEDS 4
  21:main.c        **** #define SPEED_INCREMENT 10
  22:main.c        **** 
  23:main.c        **** /* Global variables */
  24:main.c        **** uint8_t speed_index = 0;
  25:main.c        **** uint16_t speed_values[MAX_SPEEDS] = { 1500, 2500, 3500, 4500}; // Stop, Max Speed, Medium speed , S
  26:main.c        **** static uint16_t current_speed_value = 0;
  27:main.c        **** 
  28:main.c        **** //Interrupt service routines
  29:main.c        **** CY_ISR_PROTO(button_press_isr);
  30:main.c        **** CY_ISR_PROTO(pwm_cycle_isr);
ARM GAS  C:\Users\iamna\AppData\Local\Temp\ccpj2M44.s 			page 2


  31:main.c        **** 
  32:main.c        **** int main(void)
  33:main.c        **** {   
  34:main.c        ****     CyGlobalIntEnable; /* Enable global interrupts. */
  35:main.c        ****     Clock_1_Start();
  36:main.c        ****     Button_isr_StartEx(button_press_isr);
  37:main.c        ****     LED1_Write(0);
  38:main.c        ****     PWM_Start();
  39:main.c        ****     PWM_ctrl_StartEx(pwm_cycle_isr);
  40:main.c        ****     
  41:main.c        ****     /* Place your initialization/startup code here (e.g. MyInst_Start()) */
  42:main.c        ****     
  43:main.c        ****     for(;;)
  44:main.c        ****     {
  45:main.c        ****         // Main loop
  46:main.c        ****     }
  47:main.c        **** }
  48:main.c        **** 
  49:main.c        **** /*
  50:main.c        **** * ISR for button press
  51:main.c        **** * This ISR is called when the button is pressed
  52:main.c        **** * It will increment the current speed index
  53:main.c        **** * This will change the target speed
  54:main.c        **** * The PWM ISR will then change the current speed to the target speed
  55:main.c        **** */
  56:main.c        **** CY_ISR(button_press_isr){
  28              		.loc 1 56 0
  29              		.cfi_startproc
  30              		@ args = 0, pretend = 0, frame = 0
  31              		@ frame_needed = 0, uses_anonymous_args = 0
  32 0000 08B5     		push	{r3, lr}
  33              		.cfi_def_cfa_offset 8
  34              		.cfi_offset 3, -8
  35              		.cfi_offset 14, -4
  57:main.c        ****      /* Increment and check speed index */
  58:main.c        ****     if (++speed_index >= MAX_SPEEDS) {
  36              		.loc 1 58 0
  37 0002 064A     		ldr	r2, .L4
  38 0004 1378     		ldrb	r3, [r2]	@ zero_extendqisi2
  39 0006 0133     		adds	r3, r3, #1
  40 0008 DBB2     		uxtb	r3, r3
  41 000a 1370     		strb	r3, [r2]
  42 000c 032B     		cmp	r3, #3
  43 000e 02D9     		bls	.L2
  59:main.c        ****         speed_index = 0;    
  44              		.loc 1 59 0
  45 0010 0022     		movs	r2, #0
  46 0012 024B     		ldr	r3, .L4
  47 0014 1A70     		strb	r2, [r3]
  48              	.L2:
  60:main.c        ****     }
  61:main.c        ****     Button_ClearInterrupt();        // Clears the pending interrupt.
  49              		.loc 1 61 0
  50 0016 FFF7FEFF 		bl	Button_ClearInterrupt
  51              	.LVL0:
  52 001a 08BD     		pop	{r3, pc}
  53              	.L5:
ARM GAS  C:\Users\iamna\AppData\Local\Temp\ccpj2M44.s 			page 3


  54              		.align	2
  55              	.L4:
  56 001c 00000000 		.word	.LANCHOR0
  57              		.cfi_endproc
  58              	.LFE65:
  59              		.size	button_press_isr, .-button_press_isr
  60              		.section	.text.pwm_cycle_isr,"ax",%progbits
  61              		.align	2
  62              		.global	pwm_cycle_isr
  63              		.thumb
  64              		.thumb_func
  65              		.type	pwm_cycle_isr, %function
  66              	pwm_cycle_isr:
  67              	.LFB66:
  62:main.c        **** }
  63:main.c        **** 
  64:main.c        **** /*
  65:main.c        **** * ISR for PWM
  66:main.c        **** * This ISR is called when PWM is done with the current cycle
  67:main.c        **** * It will increment or decrement the current speed based on the target speed
  68:main.c        **** * It will then update the PWM compare value to the new speed
  69:main.c        **** * This will create a smooth transition between speeds
  70:main.c        **** * This is done by incrementing or decrementing the current speed by a fixed step
  71:main.c        **** * until it reaches the target speed
  72:main.c        **** * The step size is defined by SPEED_INCREMENT
  73:main.c        **** * The target speed is defined by speed_values[speed_index]
  74:main.c        **** * The current speed is stored in current_speed_value
  75:main.c        **** * The PWM compare value is updated with the new current speed
  76:main.c        **** */
  77:main.c        **** CY_ISR(pwm_cycle_isr){
  68              		.loc 1 77 0
  69              		.cfi_startproc
  70              		@ args = 0, pretend = 0, frame = 0
  71              		@ frame_needed = 0, uses_anonymous_args = 0
  72 0000 08B5     		push	{r3, lr}
  73              		.cfi_def_cfa_offset 8
  74              		.cfi_offset 3, -8
  75              		.cfi_offset 14, -4
  78:main.c        ****     if (PWM_ReadStatusRegister() ) {
  76              		.loc 1 78 0
  77 0002 FFF7FEFF 		bl	PWM_ReadStatusRegister
  78              	.LVL1:
  79 0006 D0B1     		cbz	r0, .L6
  80              	.LBB2:
  79:main.c        ****         bool isCurrentSpeedLess = current_speed_value < speed_values[speed_index];
  81              		.loc 1 79 0
  82 0008 0D4B     		ldr	r3, .L11
  83 000a 1978     		ldrb	r1, [r3]	@ zero_extendqisi2
  84 000c 0D4A     		ldr	r2, .L11+4
  85 000e 32F81120 		ldrh	r2, [r2, r1, lsl #1]
  86 0012 5B88     		ldrh	r3, [r3, #2]
  87              	.LVL2:
  80:main.c        ****         bool isCurrentSpeedMore = current_speed_value > speed_values[speed_index];
  81:main.c        ****         if (isCurrentSpeedLess) {
  88              		.loc 1 81 0
  89 0014 9A42     		cmp	r2, r3
  90 0016 06D9     		bls	.L8
ARM GAS  C:\Users\iamna\AppData\Local\Temp\ccpj2M44.s 			page 4


  82:main.c        ****             current_speed_value += SPEED_INCREMENT;
  91              		.loc 1 82 0
  92 0018 03F10A00 		add	r0, r3, #10
  93 001c 0849     		ldr	r1, .L11
  94 001e 4880     		strh	r0, [r1, #2]	@ movhi
  83:main.c        ****             if (isCurrentSpeedLess) {
  95              		.loc 1 83 0
  96 0020 09D9     		bls	.L9
  84:main.c        ****                 current_speed_value = speed_values[speed_index];
  97              		.loc 1 84 0
  98 0022 4A80     		strh	r2, [r1, #2]	@ movhi
  99 0024 07E0     		b	.L9
 100              	.L8:
  85:main.c        ****             }
  86:main.c        ****         } else if (isCurrentSpeedMore) {
 101              		.loc 1 86 0
 102 0026 9A42     		cmp	r2, r3
 103 0028 05D2     		bcs	.L9
  87:main.c        ****             current_speed_value -= SPEED_INCREMENT;
 104              		.loc 1 87 0
 105 002a A3F10A00 		sub	r0, r3, #10
 106 002e 0449     		ldr	r1, .L11
 107 0030 4880     		strh	r0, [r1, #2]	@ movhi
  88:main.c        ****             if (isCurrentSpeedMore) {
 108              		.loc 1 88 0
 109 0032 00D2     		bcs	.L9
  89:main.c        ****                 current_speed_value = speed_values[speed_index];
 110              		.loc 1 89 0
 111 0034 4A80     		strh	r2, [r1, #2]	@ movhi
 112              	.L9:
  90:main.c        ****             }
  91:main.c        ****         }
  92:main.c        ****         PWM_WriteCompare(current_speed_value);
 113              		.loc 1 92 0
 114 0036 024B     		ldr	r3, .L11
 115              	.LVL3:
 116 0038 5888     		ldrh	r0, [r3, #2]
 117 003a FFF7FEFF 		bl	PWM_WriteCompare
 118              	.LVL4:
 119              	.L6:
 120 003e 08BD     		pop	{r3, pc}
 121              	.L12:
 122              		.align	2
 123              	.L11:
 124 0040 00000000 		.word	.LANCHOR0
 125 0044 00000000 		.word	.LANCHOR1
 126              	.LBE2:
 127              		.cfi_endproc
 128              	.LFE66:
 129              		.size	pwm_cycle_isr, .-pwm_cycle_isr
 130              		.section	.text.main,"ax",%progbits
 131              		.align	2
 132              		.global	main
 133              		.thumb
 134              		.thumb_func
 135              		.type	main, %function
 136              	main:
ARM GAS  C:\Users\iamna\AppData\Local\Temp\ccpj2M44.s 			page 5


 137              	.LFB64:
  33:main.c        ****     CyGlobalIntEnable; /* Enable global interrupts. */
 138              		.loc 1 33 0
 139              		.cfi_startproc
 140              		@ Volatile: function does not return.
 141              		@ args = 0, pretend = 0, frame = 0
 142              		@ frame_needed = 0, uses_anonymous_args = 0
 143 0000 08B5     		push	{r3, lr}
 144              		.cfi_def_cfa_offset 8
 145              		.cfi_offset 3, -8
 146              		.cfi_offset 14, -4
  34:main.c        ****     Clock_1_Start();
 147              		.loc 1 34 0
 148              		.syntax unified
 149              	@ 34 "main.c" 1
 150 0002 62B6     		CPSIE   i
 151              	@ 0 "" 2
  35:main.c        ****     Button_isr_StartEx(button_press_isr);
 152              		.loc 1 35 0
 153              		.thumb
 154              		.syntax unified
 155 0004 FFF7FEFF 		bl	Clock_1_Start
 156              	.LVL5:
  36:main.c        ****     LED1_Write(0);
 157              		.loc 1 36 0
 158 0008 0548     		ldr	r0, .L16
 159 000a FFF7FEFF 		bl	Button_isr_StartEx
 160              	.LVL6:
  37:main.c        ****     PWM_Start();
 161              		.loc 1 37 0
 162 000e 0020     		movs	r0, #0
 163 0010 FFF7FEFF 		bl	LED1_Write
 164              	.LVL7:
  38:main.c        ****     PWM_ctrl_StartEx(pwm_cycle_isr);
 165              		.loc 1 38 0
 166 0014 FFF7FEFF 		bl	PWM_Start
 167              	.LVL8:
  39:main.c        ****     
 168              		.loc 1 39 0
 169 0018 0248     		ldr	r0, .L16+4
 170 001a FFF7FEFF 		bl	PWM_ctrl_StartEx
 171              	.LVL9:
 172              	.L14:
 173 001e FEE7     		b	.L14
 174              	.L17:
 175              		.align	2
 176              	.L16:
 177 0020 00000000 		.word	button_press_isr
 178 0024 00000000 		.word	pwm_cycle_isr
 179              		.cfi_endproc
 180              	.LFE64:
 181              		.size	main, .-main
 182              		.global	speed_values
 183              		.global	speed_index
 184              		.data
 185              		.align	2
 186              		.set	.LANCHOR1,. + 0
ARM GAS  C:\Users\iamna\AppData\Local\Temp\ccpj2M44.s 			page 6


 187              		.type	speed_values, %object
 188              		.size	speed_values, 8
 189              	speed_values:
 190 0000 DC05     		.short	1500
 191 0002 C409     		.short	2500
 192 0004 AC0D     		.short	3500
 193 0006 9411     		.short	4500
 194              		.bss
 195              		.align	1
 196              		.set	.LANCHOR0,. + 0
 197              		.type	speed_index, %object
 198              		.size	speed_index, 1
 199              	speed_index:
 200 0000 00       		.space	1
 201 0001 00       		.space	1
 202              		.type	current_speed_value, %object
 203              		.size	current_speed_value, 2
 204              	current_speed_value:
 205 0002 0000     		.space	2
 206              		.text
 207              	.Letext0:
 208              		.file 2 "c:\\program files (x86)\\cypress\\psoc creator\\4.4\\psoc creator\\import\\gnu\\arm\\5.4.
 209              		.file 3 "c:\\program files (x86)\\cypress\\psoc creator\\4.4\\psoc creator\\import\\gnu\\arm\\5.4.
 210              		.file 4 "Generated_Source\\PSoC5/core_cm3.h"
 211              		.file 5 "Generated_Source\\PSoC5/Button.h"
 212              		.file 6 "Generated_Source\\PSoC5/PWM.h"
 213              		.file 7 "Generated_Source\\PSoC5/Clock_1.h"
 214              		.file 8 "Generated_Source\\PSoC5/Button_isr.h"
 215              		.file 9 "Generated_Source\\PSoC5/LED1.h"
 216              		.file 10 "Generated_Source\\PSoC5/PWM_ctrl.h"