ARM GAS  C:\Users\iamna\AppData\Local\Temp\cc3bO4Ke.s 			page 1


   1              		.syntax unified
   2              		.cpu cortex-m3
   3              		.fpu softvfp
   4              		.eabi_attribute 20, 1
   5              		.eabi_attribute 21, 1
   6              		.eabi_attribute 23, 3
   7              		.eabi_attribute 24, 1
   8              		.eabi_attribute 25, 1
   9              		.eabi_attribute 26, 1
  10              		.eabi_attribute 30, 1
  11              		.eabi_attribute 34, 1
  12              		.eabi_attribute 18, 4
  13              		.thumb
  14              		.syntax unified
  15              		.file	"main.c"
  16              		.text
  17              	.Ltext0:
  18              		.cfi_sections	.debug_frame
  19              		.section	.text.main,"ax",%progbits
  20              		.align	2
  21              		.global	main
  22              		.thumb
  23              		.thumb_func
  24              		.type	main, %function
  25              	main:
  26              	.LFB64:
  27              		.file 1 "main.c"
   1:main.c        **** /* ========================================
   2:main.c        ****  *
   3:main.c        ****  * Copyright Nadim Ahmed, Metropolia University of Applied Science, Finland, 2024
   4:main.c        ****  * 
   5:main.c        ****  * April 4, 2024
   6:main.c        ****  *
   7:main.c        ****  * PSoC Design Course 2024: Exercise 1, Fundamentals
   8:main.c        ****  *
   9:main.c        ****  * Blink LED at btton press 1/sec ( 200ms on / 800ms off) and send counter value through UART to te
  10:main.c        ****  *
  11:main.c        ****  * CC-NA-SA 4.0
  12:main.c        ****  *
  13:main.c        ****  * ========================================
  14:main.c        **** */
  15:main.c        **** #include "project.h"
  16:main.c        **** #include <stdio.h>
  17:main.c        **** 
  18:main.c        **** int main(void)
  19:main.c        **** {   
  28              		.loc 1 19 0
  29              		.cfi_startproc
  30              		@ args = 0, pretend = 0, frame = 40
  31              		@ frame_needed = 0, uses_anonymous_args = 0
  32 0000 30B5     		push	{r4, r5, lr}
  33              		.cfi_def_cfa_offset 12
  34              		.cfi_offset 4, -12
  35              		.cfi_offset 5, -8
  36              		.cfi_offset 14, -4
  37 0002 8BB0     		sub	sp, sp, #44
  38              		.cfi_def_cfa_offset 56
ARM GAS  C:\Users\iamna\AppData\Local\Temp\cc3bO4Ke.s 			page 2


  39              	.LVL0:
  20:main.c        ****     // Counter variable
  21:main.c        ****     uint8 blnkcounter = 0;
  22:main.c        ****     
  23:main.c        ****     CyGlobalIntEnable; /* Enable global interrupts. */
  40              		.loc 1 23 0
  41              		.syntax unified
  42              	@ 23 "main.c" 1
  43 0004 62B6     		CPSIE   i
  44              	@ 0 "" 2
  24:main.c        ****     
  25:main.c        ****     
  26:main.c        ****     /* Place your initialization/startup code here (e.g. MyInst_Start()) */
  27:main.c        ****     
  28:main.c        ****     // Start UART
  29:main.c        ****     UART_Start();
  45              		.loc 1 29 0
  46              		.thumb
  47              		.syntax unified
  48 0006 FFF7FEFF 		bl	UART_Start
  49              	.LVL1:
  30:main.c        ****     
  31:main.c        ****     // Buffer to  send name
  32:main.c        ****     char name[20] = {"Nadim Ahmed\r\n"};
  50              		.loc 1 32 0
  51 000a 184B     		ldr	r3, .L8
  52 000c 05AC     		add	r4, sp, #20
  53 000e 0FCB     		ldmia	r3, {r0, r1, r2, r3}
  54 0010 07C4     		stmia	r4!, {r0, r1, r2}
  55 0012 2380     		strh	r3, [r4]	@ movhi
  56 0014 0024     		movs	r4, #0
  57 0016 CDF82240 		str	r4, [sp, #34]	@ unaligned
  58 001a ADF82640 		strh	r4, [sp, #38]	@ movhi
  33:main.c        ****     
  34:main.c        ****     // Buffer to send counter value
  35:main.c        ****     char send[20] = {0};
  59              		.loc 1 35 0
  60 001e 0094     		str	r4, [sp]
  61 0020 0194     		str	r4, [sp, #4]
  62 0022 0294     		str	r4, [sp, #8]
  63 0024 0394     		str	r4, [sp, #12]
  64 0026 0494     		str	r4, [sp, #16]
  36:main.c        **** 
  37:main.c        ****     UART_PutString(name);
  65              		.loc 1 37 0
  66 0028 05A8     		add	r0, sp, #20
  67 002a FFF7FEFF 		bl	UART_PutString
  68              	.LVL2:
  69              	.L2:
  38:main.c        ****     for(;;)
  39:main.c        ****     {
  40:main.c        ****         /* Place your application code here. */
  41:main.c        ****         
  42:main.c        ****         if(!Button_Read()){  // if Button pressed
  70              		.loc 1 42 0
  71 002e FFF7FEFF 		bl	Button_Read
  72              	.LVL3:
ARM GAS  C:\Users\iamna\AppData\Local\Temp\cc3bO4Ke.s 			page 3


  73 0032 68B9     		cbnz	r0, .L3
  74              	.LBB2:
  43:main.c        ****             uint8 ledState = ++blnkcounter % 2;
  75              		.loc 1 43 0
  76 0034 0134     		adds	r4, r4, #1
  77              	.LVL4:
  78 0036 E4B2     		uxtb	r4, r4
  79              	.LVL5:
  80 0038 04F00105 		and	r5, r4, #1
  81              	.LVL6:
  44:main.c        ****             LED1_Write(ledState); // Increase the counter and turn on and off the led
  82              		.loc 1 44 0
  83 003c 2846     		mov	r0, r5
  84 003e FFF7FEFF 		bl	LED1_Write
  85              	.LVL7:
  45:main.c        ****             CyDelay(ledState == 0 ? 200 : 800); // if led on wait 200 ms, else wait 800 ms
  86              		.loc 1 45 0
  87 0042 0DB9     		cbnz	r5, .L6
  88 0044 C820     		movs	r0, #200
  89 0046 01E0     		b	.L4
  90              	.L6:
  91 0048 4FF44870 		mov	r0, #800
  92              	.L4:
  93              		.loc 1 45 0 is_stmt 0 discriminator 4
  94 004c FFF7FEFF 		bl	CyDelay
  95              	.LVL8:
  96              	.L3:
  97              	.LBE2:
  46:main.c        ****         }
  47:main.c        ****         // Read input  char from UART and send the blnk counter value
  48:main.c        ****         if (UART_GetChar()) {
  98              		.loc 1 48 0 is_stmt 1
  99 0050 FFF7FEFF 		bl	UART_GetChar
 100              	.LVL9:
 101 0054 0028     		cmp	r0, #0
 102 0056 EAD0     		beq	.L2
  49:main.c        ****             sprintf(send, "%d\r\n", blnkcounter);
 103              		.loc 1 49 0
 104 0058 2246     		mov	r2, r4
 105 005a 0549     		ldr	r1, .L8+4
 106 005c 6846     		mov	r0, sp
 107 005e FFF7FEFF 		bl	sprintf
 108              	.LVL10:
  50:main.c        ****             UART_PutString(send);
 109              		.loc 1 50 0
 110 0062 6846     		mov	r0, sp
 111 0064 FFF7FEFF 		bl	UART_PutString
 112              	.LVL11:
 113 0068 E1E7     		b	.L2
 114              	.L9:
 115 006a 00BF     		.align	2
 116              	.L8:
 117 006c 00000000 		.word	.LANCHOR0
 118 0070 00000000 		.word	.LC1
 119              		.cfi_endproc
 120              	.LFE64:
 121              		.size	main, .-main
ARM GAS  C:\Users\iamna\AppData\Local\Temp\cc3bO4Ke.s 			page 4


 122              		.section	.rodata
 123              		.align	2
 124              		.set	.LANCHOR0,. + 0
 125              	.LC0:
 126 0000 4E616469 		.ascii	"Nadim Ahmed\015\012\000"
 126      6D204168 
 126      6D65640D 
 126      0A00
 127 000e 00000000 		.space	6
 127      0000
 128              		.section	.rodata.str1.4,"aMS",%progbits,1
 129              		.align	2
 130              	.LC1:
 131 0000 25640D0A 		.ascii	"%d\015\012\000"
 131      00
 132              		.text
 133              	.Letext0:
 134              		.file 2 "c:\\program files (x86)\\cypress\\psoc creator\\4.4\\psoc creator\\import\\gnu\\arm\\5.4.
 135              		.file 3 "c:\\program files (x86)\\cypress\\psoc creator\\4.4\\psoc creator\\import\\gnu\\arm\\5.4.
 136              		.file 4 "Generated_Source\\PSoC5/cytypes.h"
 137              		.file 5 "Generated_Source\\PSoC5/LED1.h"
 138              		.file 6 "Generated_Source\\PSoC5/CyLib.h"
 139              		.file 7 "Generated_Source\\PSoC5/UART.h"
 140              		.file 8 "Generated_Source\\PSoC5/Button.h"
 141              		.file 9 "c:\\program files (x86)\\cypress\\psoc creator\\4.4\\psoc creator\\import\\gnu\\arm\\5.4.
 142              		.file 10 "Generated_Source\\PSoC5/core_cm3.h"