ARM GAS  C:\Users\iamna\AppData\Local\Temp\ccDeQyWz.s 			page 1


   1              		.syntax unified
   2              		.cpu cortex-m3
   3              		.fpu softvfp
   4              		.eabi_attribute 20, 1
   5              		.eabi_attribute 21, 1
   6              		.eabi_attribute 23, 3
   7              		.eabi_attribute 24, 1
   8              		.eabi_attribute 25, 1
   9              		.eabi_attribute 26, 1
  10              		.eabi_attribute 30, 6
  11              		.eabi_attribute 34, 1
  12              		.eabi_attribute 18, 4
  13              		.thumb
  14              		.syntax unified
  15              		.file	"main.c"
  16              		.text
  17              	.Ltext0:
  18              		.cfi_sections	.debug_frame
  19              		.global	sum_of_voltage
  20              		.bss
  21              		.align	2
  22              		.type	sum_of_voltage, %object
  23              		.size	sum_of_voltage, 4
  24              	sum_of_voltage:
  25 0000 00000000 		.space	4
  26              		.global	count
  27              		.align	2
  28              		.type	count, %object
  29              		.size	count, 4
  30              	count:
  31 0004 00000000 		.space	4
  32              		.comm	voltage,4,4
  33              		.comm	current_tempreture,4,4
  34              		.global	send_data
  35              		.type	send_data, %object
  36              		.size	send_data, 1
  37              	send_data:
  38 0008 00       		.space	1
  39              		.comm	TransmitBuffer,30,4
  40              		.comm	Rh_byte1,1,1
  41              		.comm	Temp_byte1,1,1
  42              		.comm	Temp_byte2,1,1
  43              		.comm	SUM,2,2
  44              		.comm	RH,2,2
  45              		.comm	TEMP,2,2
  46              		.global	Tempreture
  47 0009 000000   		.align	2
  48              		.type	Tempreture, %object
  49              		.size	Tempreture, 4
  50              	Tempreture:
  51 000c 00000000 		.space	4
  52              		.global	Presence
  53              		.type	Presence, %object
  54              		.size	Presence, 1
  55              	Presence:
  56 0010 00       		.space	1
  57              		.comm	retByte_buffer,9,4
ARM GAS  C:\Users\iamna\AppData\Local\Temp\ccDeQyWz.s 			page 2


  58              		.section	.rodata
  59              		.align	2
  60              	.LC0:
  61 0000 434F4D20 		.ascii	"COM Port Open\000"
  61      506F7274 
  61      204F7065 
  61      6E00
  62              		.global	__aeabi_ui2f
  63              		.global	__aeabi_fdiv
  64              		.global	__aeabi_f2iz
  65              		.global	__aeabi_f2d
  66 000e 0000     		.align	2
  67              	.LC1:
  68 0010 7B202241 		.ascii	"{ \"ADC\": %d ,\"LM35\": %d, \"DS18B20\": %0.1f}\015"
  68      4443223A 
  68      20256420 
  68      2C224C4D 
  68      3335223A 
  69 003b 0A00     		.ascii	"\012\000"
  70              		.section	.text.main,"ax",%progbits
  71              		.align	2
  72              		.global	main
  73              		.thumb
  74              		.thumb_func
  75              		.type	main, %function
  76              	main:
  77              	.LFB64:
  78              		.file 1 "main.c"
   1:main.c        **** /* ========================================
   2:main.c        ****  *
   3:main.c        ****  * Copyright: Nadim Ahmed, Metropolia University of Applied Science, Finland, 2024
   4:main.c        ****  * 
   5:main.c        ****  * April 21, 2024
   6:main.c        ****  *
   7:main.c        ****  * PSoC Design Course 2024: Exercise 5, One Wire protocol implementation and Tempreture reading
   8:main.c        ****  *
   9:main.c        ****  *Data acquisition from  temperature sensor
  10:main.c        ****  *
  11:main.c        ****  * CC-NA-SA 4.0
  12:main.c        ****  *
  13:main.c        ****  * ========================================
  14:main.c        **** */
  15:main.c        **** 
  16:main.c        **** #include <project.h>
  17:main.c        **** #include "stdio.h"
  18:main.c        **** #include "stdbool.h"
  19:main.c        **** 
  20:main.c        **** /* Project Defines */
  21:main.c        **** #define TRANSMIT_BUFFER_SIZE  30
  22:main.c        **** 
  23:main.c        **** CY_ISR_PROTO(ADC_ISR_Function);
  24:main.c        **** CY_ISR(Timer_ISR_Function);
  25:main.c        **** 
  26:main.c        **** void send_Data_to_Uart();
  27:main.c        **** void tempcalc();
  28:main.c        **** 
  29:main.c        **** uint32 sum_of_voltage = 0 ;
ARM GAS  C:\Users\iamna\AppData\Local\Temp\ccDeQyWz.s 			page 3


  30:main.c        **** uint32 count = 0;
  31:main.c        **** 
  32:main.c        **** float32 voltage;
  33:main.c        **** float32 current_tempreture;
  34:main.c        **** bool send_data = false;
  35:main.c        **** char TransmitBuffer[TRANSMIT_BUFFER_SIZE];
  36:main.c        **** 
  37:main.c        **** /* DS18B20 */
  38:main.c        **** uint8_t Rh_byte1, Rh_byte1, Temp_byte1, Temp_byte2;
  39:main.c        **** uint16_t SUM, RH, TEMP;
  40:main.c        **** float32 Tempreture = 0;
  41:main.c        **** uint8_t Presence = 0;
  42:main.c        **** 
  43:main.c        **** uint8_t DS18B20_Start();
  44:main.c        **** void DS18B20_Write(uint8_t data);
  45:main.c        **** uint8_t DS18B20_Read();
  46:main.c        **** void DS18B20_tempCalc();
  47:main.c        **** uint8 retByte_buffer[9];
  48:main.c        **** 
  49:main.c        **** int main()
  50:main.c        **** {
  79              		.loc 1 50 0
  80              		.cfi_startproc
  81              		@ args = 0, pretend = 0, frame = 0
  82              		@ frame_needed = 1, uses_anonymous_args = 0
  83 0000 F0B5     		push	{r4, r5, r6, r7, lr}
  84              		.cfi_def_cfa_offset 20
  85              		.cfi_offset 4, -20
  86              		.cfi_offset 5, -16
  87              		.cfi_offset 6, -12
  88              		.cfi_offset 7, -8
  89              		.cfi_offset 14, -4
  90 0002 83B0     		sub	sp, sp, #12
  91              		.cfi_def_cfa_offset 32
  92 0004 02AF     		add	r7, sp, #8
  93              		.cfi_def_cfa 7, 24
  51:main.c        ****    CyGlobalIntEnable;
  94              		.loc 1 51 0
  95              		.syntax unified
  96              	@ 51 "main.c" 1
  97 0006 62B6     		CPSIE   i
  98              	@ 0 "" 2
  52:main.c        ****     /* Start the components */
  53:main.c        ****     ADC_DelSig_1_Start();
  99              		.loc 1 53 0
 100              		.thumb
 101              		.syntax unified
 102 0008 FFF7FEFF 		bl	ADC_DelSig_1_Start
  54:main.c        ****     UART_1_Start();
 103              		.loc 1 54 0
 104 000c FFF7FEFF 		bl	UART_1_Start
  55:main.c        ****     Timer_Start();
 105              		.loc 1 55 0
 106 0010 FFF7FEFF 		bl	Timer_Start
  56:main.c        ****   
  57:main.c        ****     /* Start interrupt */
  58:main.c        ****     ADC_isr_StartEx(ADC_ISR_Function);
ARM GAS  C:\Users\iamna\AppData\Local\Temp\ccDeQyWz.s 			page 4


 107              		.loc 1 58 0
 108 0014 4C48     		ldr	r0, .L4
 109 0016 FFF7FEFF 		bl	ADC_isr_StartEx
  59:main.c        ****     Timer_isr_StartEx(Timer_ISR_Function);
 110              		.loc 1 59 0
 111 001a 4C48     		ldr	r0, .L4+4
 112 001c FFF7FEFF 		bl	Timer_isr_StartEx
  60:main.c        ****     
  61:main.c        ****     /* Start the ADC conversion */
  62:main.c        ****     ADC_DelSig_1_StartConvert();
 113              		.loc 1 62 0
 114 0020 FFF7FEFF 		bl	ADC_DelSig_1_StartConvert
  63:main.c        ****     
  64:main.c        ****     /* Send message to verify COM port is connected properly */
  65:main.c        ****     UART_1_PutString("COM Port Open");
 115              		.loc 1 65 0
 116 0024 4A48     		ldr	r0, .L4+8
 117 0026 FFF7FEFF 		bl	UART_1_PutString
 118              	.L3:
  66:main.c        ****     
  67:main.c        ****     for(;;)
  68:main.c        ****     {    
  69:main.c        ****     
  70:main.c        ****    
  71:main.c        ****        if(send_data){
 119              		.loc 1 71 0
 120 002a 4A4B     		ldr	r3, .L4+12
 121 002c 1B78     		ldrb	r3, [r3]	@ zero_extendqisi2
 122 002e 002B     		cmp	r3, #0
 123 0030 FBD0     		beq	.L3
  72:main.c        ****             CyGlobalIntDisable;
 124              		.loc 1 72 0
 125              		.syntax unified
 126              	@ 72 "main.c" 1
 127 0032 72B6     		CPSID   i
 128              	@ 0 "" 2
  73:main.c        ****             Presence = DS18B20_Start();
 129              		.loc 1 73 0
 130              		.thumb
 131              		.syntax unified
 132 0034 FFF7FEFF 		bl	DS18B20_Start
 133 0038 0346     		mov	r3, r0
 134 003a 1A46     		mov	r2, r3
 135 003c 464B     		ldr	r3, .L4+16
 136 003e 1A70     		strb	r2, [r3]
  74:main.c        ****             CyDelay(1);
 137              		.loc 1 74 0
 138 0040 0120     		movs	r0, #1
 139 0042 FFF7FEFF 		bl	CyDelay
  75:main.c        ****             DS18B20_Write(0xCC);
 140              		.loc 1 75 0
 141 0046 CC20     		movs	r0, #204
 142 0048 FFF7FEFF 		bl	DS18B20_Write
  76:main.c        ****             DS18B20_Write(0x4E);
 143              		.loc 1 76 0
 144 004c 4E20     		movs	r0, #78
 145 004e FFF7FEFF 		bl	DS18B20_Write
ARM GAS  C:\Users\iamna\AppData\Local\Temp\ccDeQyWz.s 			page 5


  77:main.c        ****             DS18B20_Write(0);
 146              		.loc 1 77 0
 147 0052 0020     		movs	r0, #0
 148 0054 FFF7FEFF 		bl	DS18B20_Write
  78:main.c        ****             DS18B20_Write(0);
 149              		.loc 1 78 0
 150 0058 0020     		movs	r0, #0
 151 005a FFF7FEFF 		bl	DS18B20_Write
  79:main.c        ****             DS18B20_Write(0);
 152              		.loc 1 79 0
 153 005e 0020     		movs	r0, #0
 154 0060 FFF7FEFF 		bl	DS18B20_Write
  80:main.c        ****             
  81:main.c        ****             Presence = DS18B20_Start();
 155              		.loc 1 81 0
 156 0064 FFF7FEFF 		bl	DS18B20_Start
 157 0068 0346     		mov	r3, r0
 158 006a 1A46     		mov	r2, r3
 159 006c 3A4B     		ldr	r3, .L4+16
 160 006e 1A70     		strb	r2, [r3]
  82:main.c        ****             DS18B20_Write(0xCC);
 161              		.loc 1 82 0
 162 0070 CC20     		movs	r0, #204
 163 0072 FFF7FEFF 		bl	DS18B20_Write
  83:main.c        ****             DS18B20_Write(0x44);
 164              		.loc 1 83 0
 165 0076 4420     		movs	r0, #68
 166 0078 FFF7FEFF 		bl	DS18B20_Write
  84:main.c        ****             OneWire_SetDriveMode(OneWire_DM_STRONG);
 167              		.loc 1 84 0
 168 007c 0C20     		movs	r0, #12
 169 007e FFF7FEFF 		bl	OneWire_SetDriveMode
  85:main.c        ****             CyDelay(94);                                         
 170              		.loc 1 85 0
 171 0082 5E20     		movs	r0, #94
 172 0084 FFF7FEFF 		bl	CyDelay
  86:main.c        ****             OneWire_SetDriveMode(OneWire_DM_RES_UP);
 173              		.loc 1 86 0
 174 0088 0420     		movs	r0, #4
 175 008a FFF7FEFF 		bl	OneWire_SetDriveMode
  87:main.c        ****            
  88:main.c        ****             CyDelay(800);
 176              		.loc 1 88 0
 177 008e 4FF44870 		mov	r0, #800
 178 0092 FFF7FEFF 		bl	CyDelay
  89:main.c        ****             
  90:main.c        ****             Presence = DS18B20_Start();
 179              		.loc 1 90 0
 180 0096 FFF7FEFF 		bl	DS18B20_Start
 181 009a 0346     		mov	r3, r0
 182 009c 1A46     		mov	r2, r3
 183 009e 2E4B     		ldr	r3, .L4+16
 184 00a0 1A70     		strb	r2, [r3]
  91:main.c        ****             CyDelay(1);
 185              		.loc 1 91 0
 186 00a2 0120     		movs	r0, #1
 187 00a4 FFF7FEFF 		bl	CyDelay
ARM GAS  C:\Users\iamna\AppData\Local\Temp\ccDeQyWz.s 			page 6


  92:main.c        ****             DS18B20_Write(0xCC);
 188              		.loc 1 92 0
 189 00a8 CC20     		movs	r0, #204
 190 00aa FFF7FEFF 		bl	DS18B20_Write
  93:main.c        ****             DS18B20_Write(0xBE);
 191              		.loc 1 93 0
 192 00ae BE20     		movs	r0, #190
 193 00b0 FFF7FEFF 		bl	DS18B20_Write
  94:main.c        ****             
  95:main.c        ****             Temp_byte1 = DS18B20_Read();
 194              		.loc 1 95 0
 195 00b4 FFF7FEFF 		bl	DS18B20_Read
 196 00b8 0346     		mov	r3, r0
 197 00ba 1A46     		mov	r2, r3
 198 00bc 274B     		ldr	r3, .L4+20
 199 00be 1A70     		strb	r2, [r3]
  96:main.c        ****             Temp_byte2 = DS18B20_Read();
 200              		.loc 1 96 0
 201 00c0 FFF7FEFF 		bl	DS18B20_Read
 202 00c4 0346     		mov	r3, r0
 203 00c6 1A46     		mov	r2, r3
 204 00c8 254B     		ldr	r3, .L4+24
 205 00ca 1A70     		strb	r2, [r3]
  97:main.c        ****             
  98:main.c        ****             
  99:main.c        ****             TEMP = Temp_byte2 << 8 | Temp_byte1;
 206              		.loc 1 99 0
 207 00cc 244B     		ldr	r3, .L4+24
 208 00ce 1B78     		ldrb	r3, [r3]	@ zero_extendqisi2
 209 00d0 1B02     		lsls	r3, r3, #8
 210 00d2 1AB2     		sxth	r2, r3
 211 00d4 214B     		ldr	r3, .L4+20
 212 00d6 1B78     		ldrb	r3, [r3]	@ zero_extendqisi2
 213 00d8 1BB2     		sxth	r3, r3
 214 00da 1343     		orrs	r3, r3, r2
 215 00dc 1BB2     		sxth	r3, r3
 216 00de 9AB2     		uxth	r2, r3
 217 00e0 204B     		ldr	r3, .L4+28
 218 00e2 1A80     		strh	r2, [r3]	@ movhi
 100:main.c        ****             Tempreture = (float)TEMP /16;
 219              		.loc 1 100 0
 220 00e4 1F4B     		ldr	r3, .L4+28
 221 00e6 1B88     		ldrh	r3, [r3]
 222 00e8 1846     		mov	r0, r3
 223 00ea FFF7FEFF 		bl	__aeabi_ui2f
 224 00ee 0346     		mov	r3, r0
 225 00f0 4FF08341 		mov	r1, #1098907648
 226 00f4 1846     		mov	r0, r3
 227 00f6 FFF7FEFF 		bl	__aeabi_fdiv
 228 00fa 0346     		mov	r3, r0
 229 00fc 1A46     		mov	r2, r3
 230 00fe 1A4B     		ldr	r3, .L4+32
 231 0100 1A60     		str	r2, [r3]	@ float
 101:main.c        ****             sprintf(TransmitBuffer, "{ \"ADC\": %d ,\"LM35\": %d, \"DS18B20\": %0.1f}\r\n", (int) v
 232              		.loc 1 101 0
 233 0102 1A4B     		ldr	r3, .L4+36
 234 0104 1B68     		ldr	r3, [r3]	@ float
ARM GAS  C:\Users\iamna\AppData\Local\Temp\ccDeQyWz.s 			page 7


 235 0106 1846     		mov	r0, r3
 236 0108 FFF7FEFF 		bl	__aeabi_f2iz
 237 010c 0546     		mov	r5, r0
 238 010e 184B     		ldr	r3, .L4+40
 239 0110 1B68     		ldr	r3, [r3]	@ float
 240 0112 1846     		mov	r0, r3
 241 0114 FFF7FEFF 		bl	__aeabi_f2iz
 242 0118 0646     		mov	r6, r0
 243 011a 134B     		ldr	r3, .L4+32
 244 011c 1B68     		ldr	r3, [r3]	@ float
 245 011e 1846     		mov	r0, r3
 246 0120 FFF7FEFF 		bl	__aeabi_f2d
 247 0124 0346     		mov	r3, r0
 248 0126 0C46     		mov	r4, r1
 249 0128 CDE90034 		strd	r3, [sp]
 250 012c 3346     		mov	r3, r6
 251 012e 2A46     		mov	r2, r5
 252 0130 1049     		ldr	r1, .L4+44
 253 0132 1148     		ldr	r0, .L4+48
 254 0134 FFF7FEFF 		bl	sprintf
 102:main.c        ****             UART_1_PutString(TransmitBuffer);
 255              		.loc 1 102 0
 256 0138 0F48     		ldr	r0, .L4+48
 257 013a FFF7FEFF 		bl	UART_1_PutString
 103:main.c        ****             send_data = false;
 258              		.loc 1 103 0
 259 013e 054B     		ldr	r3, .L4+12
 260 0140 0022     		movs	r2, #0
 261 0142 1A70     		strb	r2, [r3]
 104:main.c        ****             CyGlobalIntEnable;
 262              		.loc 1 104 0
 263              		.syntax unified
 264              	@ 104 "main.c" 1
 265 0144 62B6     		CPSIE   i
 266              	@ 0 "" 2
 105:main.c        ****         
 106:main.c        ****         }
 107:main.c        ****         
 108:main.c        ****          
 109:main.c        ****     }
 267              		.loc 1 109 0
 268              		.thumb
 269              		.syntax unified
 270 0146 70E7     		b	.L3
 271              	.L5:
 272              		.align	2
 273              	.L4:
 274 0148 00000000 		.word	ADC_ISR_Function
 275 014c 00000000 		.word	Timer_ISR_Function
 276 0150 00000000 		.word	.LC0
 277 0154 00000000 		.word	send_data
 278 0158 00000000 		.word	Presence
 279 015c 00000000 		.word	Temp_byte1
 280 0160 00000000 		.word	Temp_byte2
 281 0164 00000000 		.word	TEMP
 282 0168 00000000 		.word	Tempreture
 283 016c 00000000 		.word	voltage
ARM GAS  C:\Users\iamna\AppData\Local\Temp\ccDeQyWz.s 			page 8


 284 0170 00000000 		.word	current_tempreture
 285 0174 10000000 		.word	.LC1
 286 0178 00000000 		.word	TransmitBuffer
 287              		.cfi_endproc
 288              	.LFE64:
 289              		.size	main, .-main
 290              		.section	.text.DS18B20_Start,"ax",%progbits
 291              		.align	2
 292              		.global	DS18B20_Start
 293              		.thumb
 294              		.thumb_func
 295              		.type	DS18B20_Start, %function
 296              	DS18B20_Start:
 297              	.LFB65:
 110:main.c        **** }
 111:main.c        **** 
 112:main.c        **** uint8_t DS18B20_Start(){
 298              		.loc 1 112 0
 299              		.cfi_startproc
 300              		@ args = 0, pretend = 0, frame = 8
 301              		@ frame_needed = 1, uses_anonymous_args = 0
 302 0000 80B5     		push	{r7, lr}
 303              		.cfi_def_cfa_offset 8
 304              		.cfi_offset 7, -8
 305              		.cfi_offset 14, -4
 306 0002 82B0     		sub	sp, sp, #8
 307              		.cfi_def_cfa_offset 16
 308 0004 00AF     		add	r7, sp, #0
 309              		.cfi_def_cfa_register 7
 113:main.c        ****     uint8_t Response = 0;
 310              		.loc 1 113 0
 311 0006 0023     		movs	r3, #0
 312 0008 FB71     		strb	r3, [r7, #7]
 114:main.c        ****     OneWire_Write(0);
 313              		.loc 1 114 0
 314 000a 0020     		movs	r0, #0
 315 000c FFF7FEFF 		bl	OneWire_Write
 115:main.c        ****     CyDelayUs(480);
 316              		.loc 1 115 0
 317 0010 4FF4F070 		mov	r0, #480
 318 0014 FFF7FEFF 		bl	CyDelayUs
 116:main.c        ****     OneWire_Write(1);
 319              		.loc 1 116 0
 320 0018 0120     		movs	r0, #1
 321 001a FFF7FEFF 		bl	OneWire_Write
 117:main.c        ****     CyDelayUs(80);
 322              		.loc 1 117 0
 323 001e 5020     		movs	r0, #80
 324 0020 FFF7FEFF 		bl	CyDelayUs
 118:main.c        ****     if(!OneWire_Read()){
 325              		.loc 1 118 0
 326 0024 FFF7FEFF 		bl	OneWire_Read
 327 0028 0346     		mov	r3, r0
 328 002a 002B     		cmp	r3, #0
 329 002c 01D1     		bne	.L7
 119:main.c        ****         Response = 1;
 330              		.loc 1 119 0
ARM GAS  C:\Users\iamna\AppData\Local\Temp\ccDeQyWz.s 			page 9


 331 002e 0123     		movs	r3, #1
 332 0030 FB71     		strb	r3, [r7, #7]
 333              	.L7:
 120:main.c        ****     }
 121:main.c        ****     CyDelayUs(450);
 334              		.loc 1 121 0
 335 0032 4FF4E170 		mov	r0, #450
 336 0036 FFF7FEFF 		bl	CyDelayUs
 122:main.c        ****     return Response;
 337              		.loc 1 122 0
 338 003a FB79     		ldrb	r3, [r7, #7]	@ zero_extendqisi2
 123:main.c        **** }
 339              		.loc 1 123 0
 340 003c 1846     		mov	r0, r3
 341 003e 0837     		adds	r7, r7, #8
 342              		.cfi_def_cfa_offset 8
 343 0040 BD46     		mov	sp, r7
 344              		.cfi_def_cfa_register 13
 345              		@ sp needed
 346 0042 80BD     		pop	{r7, pc}
 347              		.cfi_endproc
 348              	.LFE65:
 349              		.size	DS18B20_Start, .-DS18B20_Start
 350              		.section	.text.DS18B20_Write,"ax",%progbits
 351              		.align	2
 352              		.global	DS18B20_Write
 353              		.thumb
 354              		.thumb_func
 355              		.type	DS18B20_Write, %function
 356              	DS18B20_Write:
 357              	.LFB66:
 124:main.c        **** void DS18B20_Write(uint8_t data){
 358              		.loc 1 124 0
 359              		.cfi_startproc
 360              		@ args = 0, pretend = 0, frame = 16
 361              		@ frame_needed = 1, uses_anonymous_args = 0
 362 0000 80B5     		push	{r7, lr}
 363              		.cfi_def_cfa_offset 8
 364              		.cfi_offset 7, -8
 365              		.cfi_offset 14, -4
 366 0002 84B0     		sub	sp, sp, #16
 367              		.cfi_def_cfa_offset 24
 368 0004 00AF     		add	r7, sp, #0
 369              		.cfi_def_cfa_register 7
 370 0006 0346     		mov	r3, r0
 371 0008 FB71     		strb	r3, [r7, #7]
 372              	.LBB2:
 125:main.c        ****         for(int i = 0; i < 8; i++){
 373              		.loc 1 125 0
 374 000a 0023     		movs	r3, #0
 375 000c FB60     		str	r3, [r7, #12]
 376 000e 23E0     		b	.L10
 377              	.L13:
 126:main.c        ****             if((data & 1<<i) != 0 ){
 378              		.loc 1 126 0
 379 0010 FA79     		ldrb	r2, [r7, #7]	@ zero_extendqisi2
 380 0012 FB68     		ldr	r3, [r7, #12]
ARM GAS  C:\Users\iamna\AppData\Local\Temp\ccDeQyWz.s 			page 10


 381 0014 42FA03F3 		asr	r3, r2, r3
 382 0018 03F00103 		and	r3, r3, #1
 383 001c 002B     		cmp	r3, #0
 384 001e 0CD0     		beq	.L11
 127:main.c        ****                 OneWire_Write(0);
 385              		.loc 1 127 0
 386 0020 0020     		movs	r0, #0
 387 0022 FFF7FEFF 		bl	OneWire_Write
 128:main.c        ****                 CyDelayUs(1);
 388              		.loc 1 128 0
 389 0026 0120     		movs	r0, #1
 390 0028 FFF7FEFF 		bl	CyDelayUs
 129:main.c        ****                 OneWire_Write(1);
 391              		.loc 1 129 0
 392 002c 0120     		movs	r0, #1
 393 002e FFF7FEFF 		bl	OneWire_Write
 130:main.c        ****                 CyDelayUs(60);
 394              		.loc 1 130 0
 395 0032 3C20     		movs	r0, #60
 396 0034 FFF7FEFF 		bl	CyDelayUs
 397 0038 0BE0     		b	.L12
 398              	.L11:
 131:main.c        ****             }
 132:main.c        ****             else{
 133:main.c        ****                 OneWire_Write(0);
 399              		.loc 1 133 0
 400 003a 0020     		movs	r0, #0
 401 003c FFF7FEFF 		bl	OneWire_Write
 134:main.c        ****                 CyDelayUs(60);
 402              		.loc 1 134 0
 403 0040 3C20     		movs	r0, #60
 404 0042 FFF7FEFF 		bl	CyDelayUs
 135:main.c        ****                 OneWire_Write(1);
 405              		.loc 1 135 0
 406 0046 0120     		movs	r0, #1
 407 0048 FFF7FEFF 		bl	OneWire_Write
 136:main.c        ****                 CyDelayUs(15);
 408              		.loc 1 136 0
 409 004c 0F20     		movs	r0, #15
 410 004e FFF7FEFF 		bl	CyDelayUs
 411              	.L12:
 125:main.c        ****             if((data & 1<<i) != 0 ){
 412              		.loc 1 125 0 discriminator 2
 413 0052 FB68     		ldr	r3, [r7, #12]
 414 0054 0133     		adds	r3, r3, #1
 415 0056 FB60     		str	r3, [r7, #12]
 416              	.L10:
 125:main.c        ****             if((data & 1<<i) != 0 ){
 417              		.loc 1 125 0 is_stmt 0 discriminator 1
 418 0058 FB68     		ldr	r3, [r7, #12]
 419 005a 072B     		cmp	r3, #7
 420 005c D8DD     		ble	.L13
 421              	.LBE2:
 137:main.c        ****                 
 138:main.c        ****             }
 139:main.c        ****         }
 140:main.c        ****     
ARM GAS  C:\Users\iamna\AppData\Local\Temp\ccDeQyWz.s 			page 11


 141:main.c        ****     
 142:main.c        **** }
 422              		.loc 1 142 0 is_stmt 1
 423 005e 00BF     		nop
 424 0060 1037     		adds	r7, r7, #16
 425              		.cfi_def_cfa_offset 8
 426 0062 BD46     		mov	sp, r7
 427              		.cfi_def_cfa_register 13
 428              		@ sp needed
 429 0064 80BD     		pop	{r7, pc}
 430              		.cfi_endproc
 431              	.LFE66:
 432              		.size	DS18B20_Write, .-DS18B20_Write
 433 0066 00BF     		.section	.text.DS18B20_Read,"ax",%progbits
 434              		.align	2
 435              		.global	DS18B20_Read
 436              		.thumb
 437              		.thumb_func
 438              		.type	DS18B20_Read, %function
 439              	DS18B20_Read:
 440              	.LFB67:
 143:main.c        **** 
 144:main.c        **** uint8_t DS18B20_Read(){
 441              		.loc 1 144 0
 442              		.cfi_startproc
 443              		@ args = 0, pretend = 0, frame = 8
 444              		@ frame_needed = 1, uses_anonymous_args = 0
 445 0000 80B5     		push	{r7, lr}
 446              		.cfi_def_cfa_offset 8
 447              		.cfi_offset 7, -8
 448              		.cfi_offset 14, -4
 449 0002 82B0     		sub	sp, sp, #8
 450              		.cfi_def_cfa_offset 16
 451 0004 00AF     		add	r7, sp, #0
 452              		.cfi_def_cfa_register 7
 145:main.c        ****     uint8_t value = 0;
 453              		.loc 1 145 0
 454 0006 0023     		movs	r3, #0
 455 0008 FB71     		strb	r3, [r7, #7]
 456              	.LBB3:
 146:main.c        ****     for(int i = 0; i < 8; i++){
 457              		.loc 1 146 0
 458 000a 0023     		movs	r3, #0
 459 000c 3B60     		str	r3, [r7]
 460 000e 20E0     		b	.L15
 461              	.L17:
 147:main.c        ****         OneWire_Write(0);
 462              		.loc 1 147 0
 463 0010 0020     		movs	r0, #0
 464 0012 FFF7FEFF 		bl	OneWire_Write
 148:main.c        ****         CyDelayUs(2);
 465              		.loc 1 148 0
 466 0016 0220     		movs	r0, #2
 467 0018 FFF7FEFF 		bl	CyDelayUs
 149:main.c        ****         OneWire_Write(1);
 468              		.loc 1 149 0
 469 001c 0120     		movs	r0, #1
ARM GAS  C:\Users\iamna\AppData\Local\Temp\ccDeQyWz.s 			page 12


 470 001e FFF7FEFF 		bl	OneWire_Write
 150:main.c        ****         CyDelayUs(10);
 471              		.loc 1 150 0
 472 0022 0A20     		movs	r0, #10
 473 0024 FFF7FEFF 		bl	CyDelayUs
 151:main.c        ****         if(OneWire_Read()){
 474              		.loc 1 151 0
 475 0028 FFF7FEFF 		bl	OneWire_Read
 476 002c 0346     		mov	r3, r0
 477 002e 002B     		cmp	r3, #0
 478 0030 09D0     		beq	.L16
 152:main.c        ****             value |= 1<<i;
 479              		.loc 1 152 0
 480 0032 0122     		movs	r2, #1
 481 0034 3B68     		ldr	r3, [r7]
 482 0036 02FA03F3 		lsl	r3, r2, r3
 483 003a 5AB2     		sxtb	r2, r3
 484 003c 97F90730 		ldrsb	r3, [r7, #7]
 485 0040 1343     		orrs	r3, r3, r2
 486 0042 5BB2     		sxtb	r3, r3
 487 0044 FB71     		strb	r3, [r7, #7]
 488              	.L16:
 153:main.c        ****         }
 154:main.c        ****         CyDelayUs(50);
 489              		.loc 1 154 0 discriminator 2
 490 0046 3220     		movs	r0, #50
 491 0048 FFF7FEFF 		bl	CyDelayUs
 146:main.c        ****         OneWire_Write(0);
 492              		.loc 1 146 0 discriminator 2
 493 004c 3B68     		ldr	r3, [r7]
 494 004e 0133     		adds	r3, r3, #1
 495 0050 3B60     		str	r3, [r7]
 496              	.L15:
 146:main.c        ****         OneWire_Write(0);
 497              		.loc 1 146 0 is_stmt 0 discriminator 1
 498 0052 3B68     		ldr	r3, [r7]
 499 0054 072B     		cmp	r3, #7
 500 0056 DBDD     		ble	.L17
 501              	.LBE3:
 155:main.c        ****     }                           
 156:main.c        ****     return value;  
 502              		.loc 1 156 0 is_stmt 1
 503 0058 FB79     		ldrb	r3, [r7, #7]	@ zero_extendqisi2
 157:main.c        **** }
 504              		.loc 1 157 0
 505 005a 1846     		mov	r0, r3
 506 005c 0837     		adds	r7, r7, #8
 507              		.cfi_def_cfa_offset 8
 508 005e BD46     		mov	sp, r7
 509              		.cfi_def_cfa_register 13
 510              		@ sp needed
 511 0060 80BD     		pop	{r7, pc}
 512              		.cfi_endproc
 513              	.LFE67:
 514              		.size	DS18B20_Read, .-DS18B20_Read
 515 0062 00BF     		.section	.text.ADC_ISR_Function,"ax",%progbits
 516              		.align	2
ARM GAS  C:\Users\iamna\AppData\Local\Temp\ccDeQyWz.s 			page 13


 517              		.global	ADC_ISR_Function
 518              		.thumb
 519              		.thumb_func
 520              		.type	ADC_ISR_Function, %function
 521              	ADC_ISR_Function:
 522              	.LFB68:
 158:main.c        **** 
 159:main.c        **** /* ADC ISR */
 160:main.c        **** CY_ISR(ADC_ISR_Function){
 523              		.loc 1 160 0
 524              		.cfi_startproc
 525              		@ args = 0, pretend = 0, frame = 8
 526              		@ frame_needed = 1, uses_anonymous_args = 0
 527 0000 80B5     		push	{r7, lr}
 528              		.cfi_def_cfa_offset 8
 529              		.cfi_offset 7, -8
 530              		.cfi_offset 14, -4
 531 0002 82B0     		sub	sp, sp, #8
 532              		.cfi_def_cfa_offset 16
 533 0004 00AF     		add	r7, sp, #0
 534              		.cfi_def_cfa_register 7
 161:main.c        ****    uint32 current_voltage =  ADC_DelSig_1_CountsTo_mVolts(ADC_DelSig_1_GetResult16());
 535              		.loc 1 161 0
 536 0006 FFF7FEFF 		bl	ADC_DelSig_1_GetResult16
 537 000a 0346     		mov	r3, r0
 538 000c 1846     		mov	r0, r3
 539 000e FFF7FEFF 		bl	ADC_DelSig_1_CountsTo_mVolts
 540 0012 0346     		mov	r3, r0
 541 0014 7B60     		str	r3, [r7, #4]
 162:main.c        ****    sum_of_voltage += current_voltage;
 542              		.loc 1 162 0
 543 0016 074B     		ldr	r3, .L20
 544 0018 1A68     		ldr	r2, [r3]
 545 001a 7B68     		ldr	r3, [r7, #4]
 546 001c 1344     		add	r3, r3, r2
 547 001e 054A     		ldr	r2, .L20
 548 0020 1360     		str	r3, [r2]
 163:main.c        ****    count++;
 549              		.loc 1 163 0
 550 0022 054B     		ldr	r3, .L20+4
 551 0024 1B68     		ldr	r3, [r3]
 552 0026 0133     		adds	r3, r3, #1
 553 0028 034A     		ldr	r2, .L20+4
 554 002a 1360     		str	r3, [r2]
 164:main.c        **** }
 555              		.loc 1 164 0
 556 002c 00BF     		nop
 557 002e 0837     		adds	r7, r7, #8
 558              		.cfi_def_cfa_offset 8
 559 0030 BD46     		mov	sp, r7
 560              		.cfi_def_cfa_register 13
 561              		@ sp needed
 562 0032 80BD     		pop	{r7, pc}
 563              	.L21:
 564              		.align	2
 565              	.L20:
 566 0034 00000000 		.word	sum_of_voltage
ARM GAS  C:\Users\iamna\AppData\Local\Temp\ccDeQyWz.s 			page 14


 567 0038 00000000 		.word	count
 568              		.cfi_endproc
 569              	.LFE68:
 570              		.size	ADC_ISR_Function, .-ADC_ISR_Function
 571              		.section	.text.Timer_ISR_Function,"ax",%progbits
 572              		.align	2
 573              		.global	Timer_ISR_Function
 574              		.thumb
 575              		.thumb_func
 576              		.type	Timer_ISR_Function, %function
 577              	Timer_ISR_Function:
 578              	.LFB69:
 165:main.c        **** /* Timer ISR */
 166:main.c        **** CY_ISR(Timer_ISR_Function){
 579              		.loc 1 166 0
 580              		.cfi_startproc
 581              		@ args = 0, pretend = 0, frame = 0
 582              		@ frame_needed = 1, uses_anonymous_args = 0
 583 0000 80B5     		push	{r7, lr}
 584              		.cfi_def_cfa_offset 8
 585              		.cfi_offset 7, -8
 586              		.cfi_offset 14, -4
 587 0002 00AF     		add	r7, sp, #0
 588              		.cfi_def_cfa_register 7
 167:main.c        ****     Timer_ReadStatusRegister();
 589              		.loc 1 167 0
 590 0004 FFF7FEFF 		bl	Timer_ReadStatusRegister
 168:main.c        ****     ADC_isr_Disable();
 591              		.loc 1 168 0
 592 0008 FFF7FEFF 		bl	ADC_isr_Disable
 169:main.c        ****     voltage = sum_of_voltage / count;
 593              		.loc 1 169 0
 594 000c 114B     		ldr	r3, .L23
 595 000e 1A68     		ldr	r2, [r3]
 596 0010 114B     		ldr	r3, .L23+4
 597 0012 1B68     		ldr	r3, [r3]
 598 0014 B2FBF3F3 		udiv	r3, r2, r3
 599 0018 1846     		mov	r0, r3
 600 001a FFF7FEFF 		bl	__aeabi_ui2f
 601 001e 0246     		mov	r2, r0
 602 0020 0E4B     		ldr	r3, .L23+8
 603 0022 1A60     		str	r2, [r3]	@ float
 170:main.c        ****     current_tempreture = voltage / 10.0f;
 604              		.loc 1 170 0
 605 0024 0D4B     		ldr	r3, .L23+8
 606 0026 1B68     		ldr	r3, [r3]	@ float
 607 0028 0D49     		ldr	r1, .L23+12
 608 002a 1846     		mov	r0, r3
 609 002c FFF7FEFF 		bl	__aeabi_fdiv
 610 0030 0346     		mov	r3, r0
 611 0032 1A46     		mov	r2, r3
 612 0034 0B4B     		ldr	r3, .L23+16
 613 0036 1A60     		str	r2, [r3]	@ float
 171:main.c        ****     sum_of_voltage = 0;
 614              		.loc 1 171 0
 615 0038 064B     		ldr	r3, .L23
 616 003a 0022     		movs	r2, #0
ARM GAS  C:\Users\iamna\AppData\Local\Temp\ccDeQyWz.s 			page 15


 617 003c 1A60     		str	r2, [r3]
 172:main.c        ****     count = 0;
 618              		.loc 1 172 0
 619 003e 064B     		ldr	r3, .L23+4
 620 0040 0022     		movs	r2, #0
 621 0042 1A60     		str	r2, [r3]
 173:main.c        ****     ADC_isr_Enable();
 622              		.loc 1 173 0
 623 0044 FFF7FEFF 		bl	ADC_isr_Enable
 174:main.c        ****     send_data = true;
 624              		.loc 1 174 0
 625 0048 074B     		ldr	r3, .L23+20
 626 004a 0122     		movs	r2, #1
 627 004c 1A70     		strb	r2, [r3]
 175:main.c        **** }
 628              		.loc 1 175 0
 629 004e 00BF     		nop
 630 0050 80BD     		pop	{r7, pc}
 631              	.L24:
 632 0052 00BF     		.align	2
 633              	.L23:
 634 0054 00000000 		.word	sum_of_voltage
 635 0058 00000000 		.word	count
 636 005c 00000000 		.word	voltage
 637 0060 00002041 		.word	1092616192
 638 0064 00000000 		.word	current_tempreture
 639 0068 00000000 		.word	send_data
 640              		.cfi_endproc
 641              	.LFE69:
 642              		.size	Timer_ISR_Function, .-Timer_ISR_Function
 643              		.text
 644              	.Letext0:
 645              		.file 2 "c:\\program files (x86)\\cypress\\psoc creator\\4.4\\psoc creator\\import\\gnu\\arm\\5.4.
 646              		.file 3 "c:\\program files (x86)\\cypress\\psoc creator\\4.4\\psoc creator\\import\\gnu\\arm\\5.4.
 647              		.file 4 "Generated_Source\\PSoC5/cytypes.h"
 648              		.file 5 "Generated_Source\\PSoC5/core_cm3.h"