ARM GAS  C:\Users\iamna\AppData\Local\Temp\ccmX9EX9.s 			page 1


   1              		.syntax unified
   2              		.cpu cortex-m3
   3              		.fpu softvfp
   4              		.eabi_attribute 20, 1
   5              		.eabi_attribute 21, 1
   6              		.eabi_attribute 23, 3
   7              		.eabi_attribute 24, 1
   8              		.eabi_attribute 25, 1
   9              		.eabi_attribute 26, 1
  10              		.eabi_attribute 30, 1
  11              		.eabi_attribute 34, 1
  12              		.eabi_attribute 18, 4
  13              		.thumb
  14              		.syntax unified
  15              		.file	"EZI2C.c"
  16              		.text
  17              	.Ltext0:
  18              		.cfi_sections	.debug_frame
  19              		.section	.text.EZI2C_Init,"ax",%progbits
  20              		.align	2
  21              		.global	EZI2C_Init
  22              		.thumb
  23              		.thumb_func
  24              		.type	EZI2C_Init, %function
  25              	EZI2C_Init:
  26              	.LFB0:
  27              		.file 1 "Generated_Source\\PSoC5\\EZI2C.c"
   1:Generated_Source\PSoC5/EZI2C.c **** /*******************************************************************************
   2:Generated_Source\PSoC5/EZI2C.c **** * File Name: EZI2C.c
   3:Generated_Source\PSoC5/EZI2C.c **** * Version 2.0
   4:Generated_Source\PSoC5/EZI2C.c **** *
   5:Generated_Source\PSoC5/EZI2C.c **** * Description:
   6:Generated_Source\PSoC5/EZI2C.c **** *  This file contains the setup, control and status commands for the EZI2C
   7:Generated_Source\PSoC5/EZI2C.c **** *  component. The actual protocol and operation code resides in the interrupt
   8:Generated_Source\PSoC5/EZI2C.c **** *  service routine file.
   9:Generated_Source\PSoC5/EZI2C.c **** *
  10:Generated_Source\PSoC5/EZI2C.c **** ********************************************************************************
  11:Generated_Source\PSoC5/EZI2C.c **** * Copyright 2008-2015, Cypress Semiconductor Corporation.  All rights reserved.
  12:Generated_Source\PSoC5/EZI2C.c **** * You may use this file only in accordance with the license, terms, conditions,
  13:Generated_Source\PSoC5/EZI2C.c **** * disclaimers, and limitations in the end user license agreement accompanying
  14:Generated_Source\PSoC5/EZI2C.c **** * the software package with which this file was provided.
  15:Generated_Source\PSoC5/EZI2C.c **** *******************************************************************************/
  16:Generated_Source\PSoC5/EZI2C.c **** 
  17:Generated_Source\PSoC5/EZI2C.c **** #include "EZI2C_PVT.h"
  18:Generated_Source\PSoC5/EZI2C.c **** 
  19:Generated_Source\PSoC5/EZI2C.c **** /**********************************
  20:Generated_Source\PSoC5/EZI2C.c **** *      System variables
  21:Generated_Source\PSoC5/EZI2C.c **** **********************************/
  22:Generated_Source\PSoC5/EZI2C.c **** 
  23:Generated_Source\PSoC5/EZI2C.c **** uint8 EZI2C_initVar = 0u; /* Defines if component was initialized */
  24:Generated_Source\PSoC5/EZI2C.c **** 
  25:Generated_Source\PSoC5/EZI2C.c **** /* Status and state variables */
  26:Generated_Source\PSoC5/EZI2C.c **** volatile uint8 EZI2C_curStatus; /* Current status of the component */
  27:Generated_Source\PSoC5/EZI2C.c **** volatile uint8 EZI2C_curState;  /* Current state of state machine */
  28:Generated_Source\PSoC5/EZI2C.c **** 
  29:Generated_Source\PSoC5/EZI2C.c **** /* Primary slave address variables */
  30:Generated_Source\PSoC5/EZI2C.c **** volatile uint8* EZI2C_dataPtrS1; /* Pointer to data buffer 1 */
ARM GAS  C:\Users\iamna\AppData\Local\Temp\ccmX9EX9.s 			page 2


  31:Generated_Source\PSoC5/EZI2C.c **** volatile uint16 EZI2C_bufSizeS1; /* Size of buffer 1 in bytes */
  32:Generated_Source\PSoC5/EZI2C.c **** volatile uint16 EZI2C_wrProtectS1; /* Start index of write protected area in buffer 1 */
  33:Generated_Source\PSoC5/EZI2C.c **** volatile uint8  EZI2C_rwOffsetS1; /* Current offset within buffer 1 */
  34:Generated_Source\PSoC5/EZI2C.c **** volatile uint8  EZI2C_rwIndexS1;  /* Current index within buffer 1 */
  35:Generated_Source\PSoC5/EZI2C.c **** 
  36:Generated_Source\PSoC5/EZI2C.c **** /* Secondary slave address variables */
  37:Generated_Source\PSoC5/EZI2C.c **** #if(EZI2C_ADDRESSES == EZI2C_TWO_ADDRESSES)
  38:Generated_Source\PSoC5/EZI2C.c ****     volatile uint8  EZI2C_addrS1; /* Primary slave address: software comparison */
  39:Generated_Source\PSoC5/EZI2C.c ****     volatile uint8  EZI2C_addrS2; /* Secondary slave address: software comparison */
  40:Generated_Source\PSoC5/EZI2C.c ****     volatile uint8* EZI2C_dataPtrS2; /* Pointer to data buffer 1 */
  41:Generated_Source\PSoC5/EZI2C.c ****     volatile uint16 EZI2C_bufSizeS2; /* Size of buffer 2 in bytes */
  42:Generated_Source\PSoC5/EZI2C.c ****     volatile uint16 EZI2C_wrProtectS2; /* Start index of write protected area in buffer 2 */
  43:Generated_Source\PSoC5/EZI2C.c ****     volatile uint8 EZI2C_rwOffsetS2; /* Current offset within buffer 2 */
  44:Generated_Source\PSoC5/EZI2C.c ****     volatile uint8 EZI2C_rwIndexS2;  /* Current index within buffer 2 */
  45:Generated_Source\PSoC5/EZI2C.c **** #endif  /* (EZI2C_ADDRESSES == EZI2C_TWO_ADDRESSES) */
  46:Generated_Source\PSoC5/EZI2C.c **** 
  47:Generated_Source\PSoC5/EZI2C.c **** 
  48:Generated_Source\PSoC5/EZI2C.c **** /*******************************************************************************
  49:Generated_Source\PSoC5/EZI2C.c **** * Function Name: EZI2C_Init
  50:Generated_Source\PSoC5/EZI2C.c **** ********************************************************************************
  51:Generated_Source\PSoC5/EZI2C.c **** *
  52:Generated_Source\PSoC5/EZI2C.c **** * Summary:
  53:Generated_Source\PSoC5/EZI2C.c **** *  Initializes or restores the component according to the Configure dialog
  54:Generated_Source\PSoC5/EZI2C.c **** *  settings. It is not necessary to call EZI2C_Init() because the EZI2C_Start()
  55:Generated_Source\PSoC5/EZI2C.c **** *  API calls this function, which is the preferred method to begin component
  56:Generated_Source\PSoC5/EZI2C.c **** *  operation.
  57:Generated_Source\PSoC5/EZI2C.c **** *
  58:Generated_Source\PSoC5/EZI2C.c **** * Parameters:
  59:Generated_Source\PSoC5/EZI2C.c **** *  None.
  60:Generated_Source\PSoC5/EZI2C.c **** *
  61:Generated_Source\PSoC5/EZI2C.c **** * Return:
  62:Generated_Source\PSoC5/EZI2C.c **** *  None.
  63:Generated_Source\PSoC5/EZI2C.c **** *
  64:Generated_Source\PSoC5/EZI2C.c **** * Global variables:
  65:Generated_Source\PSoC5/EZI2C.c **** *  EZI2C_initVar - It is used to indicate the initial configuration
  66:Generated_Source\PSoC5/EZI2C.c **** *  of this component.  The variable is initialized to zero and set to 1
  67:Generated_Source\PSoC5/EZI2C.c **** *  the first time EZI2C_Start() is called. This allows component  !
  68:Generated_Source\PSoC5/EZI2C.c **** *  initialization without re-initialization in all subsequent calls
  69:Generated_Source\PSoC5/EZI2C.c **** *  to the EZI2C_Start() routine.
  70:Generated_Source\PSoC5/EZI2C.c **** *
  71:Generated_Source\PSoC5/EZI2C.c **** *  EZI2C_curStatus - Stores the current status of the component.
  72:Generated_Source\PSoC5/EZI2C.c **** *
  73:Generated_Source\PSoC5/EZI2C.c **** *  EZI2C_curState- Stores the current state of an I2C state machine.
  74:Generated_Source\PSoC5/EZI2C.c **** *
  75:Generated_Source\PSoC5/EZI2C.c **** *  EZI2C_rwOffsetS1 - The global variable which stores an offset for read
  76:Generated_Source\PSoC5/EZI2C.c **** *  and write operations, is set at each write sequence of the first slave
  77:Generated_Source\PSoC5/EZI2C.c **** *  address is reset if EZI2C_initVar is 0, by
  78:Generated_Source\PSoC5/EZI2C.c **** *  EZI2C_initVar function call.
  79:Generated_Source\PSoC5/EZI2C.c **** *
  80:Generated_Source\PSoC5/EZI2C.c **** *  EZI2C_rwIndexS1 - The global variable which stores a pointer to the
  81:Generated_Source\PSoC5/EZI2C.c **** *  next value to be read or written for the first slave address is reset if
  82:Generated_Source\PSoC5/EZI2C.c **** *  EZI2C_initVar is 0, by EZI2C_initVar function call.
  83:Generated_Source\PSoC5/EZI2C.c **** *
  84:Generated_Source\PSoC5/EZI2C.c **** * EZI2C_wrProtectS1 - The global variable which stores an offset where data
  85:Generated_Source\PSoC5/EZI2C.c **** *  is read only for the first slave address is reset if
  86:Generated_Source\PSoC5/EZI2C.c **** *  EZI2C_initVar is 0, by EZI2C_initVar function call.
  87:Generated_Source\PSoC5/EZI2C.c **** *
ARM GAS  C:\Users\iamna\AppData\Local\Temp\ccmX9EX9.s 			page 3


  88:Generated_Source\PSoC5/EZI2C.c **** *  EZI2C_rwOffsetS2 - The global variable, which stores an offset for read
  89:Generated_Source\PSoC5/EZI2C.c **** *  and write operations, is set at each write sequence of the second slave
  90:Generated_Source\PSoC5/EZI2C.c **** *  device is reset if EZI2C_initVar is 0, by EZI2C_initVar
  91:Generated_Source\PSoC5/EZI2C.c **** *  function call.
  92:Generated_Source\PSoC5/EZI2C.c **** *
  93:Generated_Source\PSoC5/EZI2C.c **** *  EZI2C_rwIndexS2 - The global variable which stores a pointer to the
  94:Generated_Source\PSoC5/EZI2C.c **** *  next value to be read or written for the second slave address is reset if
  95:Generated_Source\PSoC5/EZI2C.c **** *  EZI2C_initVar is 0, by EZI2C_initVar function call.
  96:Generated_Source\PSoC5/EZI2C.c **** *
  97:Generated_Source\PSoC5/EZI2C.c **** * EZI2C_wrProtectS2 - The global variable which stores an offset where data
  98:Generated_Source\PSoC5/EZI2C.c **** *  is read only for the second slave address is reset if
  99:Generated_Source\PSoC5/EZI2C.c **** *  EZI2C_initVar is 0, by EZI2C_initVar function call.
 100:Generated_Source\PSoC5/EZI2C.c **** *
 101:Generated_Source\PSoC5/EZI2C.c **** * Reentrant:
 102:Generated_Source\PSoC5/EZI2C.c **** *  No.
 103:Generated_Source\PSoC5/EZI2C.c **** *
 104:Generated_Source\PSoC5/EZI2C.c **** *******************************************************************************/
 105:Generated_Source\PSoC5/EZI2C.c **** void EZI2C_Init(void) 
 106:Generated_Source\PSoC5/EZI2C.c **** {
  28              		.loc 1 106 0
  29              		.cfi_startproc
  30              		@ args = 0, pretend = 0, frame = 0
  31              		@ frame_needed = 0, uses_anonymous_args = 0
  32 0000 10B5     		push	{r4, lr}
  33              		.cfi_def_cfa_offset 8
  34              		.cfi_offset 4, -8
  35              		.cfi_offset 14, -4
 107:Generated_Source\PSoC5/EZI2C.c ****     /* Configure fixed function block */
 108:Generated_Source\PSoC5/EZI2C.c ****     EZI2C_CFG_REG  = EZI2C_DEFAULT_CFG;
  36              		.loc 1 108 0
  37 0002 0122     		movs	r2, #1
  38 0004 124B     		ldr	r3, .L3
  39 0006 1A70     		strb	r2, [r3]
 109:Generated_Source\PSoC5/EZI2C.c ****     EZI2C_XCFG_REG = EZI2C_DEFAULT_XCFG;
  40              		.loc 1 109 0
  41 0008 8122     		movs	r2, #129
  42 000a 0E3B     		subs	r3, r3, #14
  43 000c 1A70     		strb	r2, [r3]
 110:Generated_Source\PSoC5/EZI2C.c ****     EZI2C_ADDR_REG = EZI2C_DEFAULT_ADDR;
  44              		.loc 1 110 0
  45 000e 0822     		movs	r2, #8
  46 0010 0233     		adds	r3, r3, #2
  47 0012 1A70     		strb	r2, [r3]
 111:Generated_Source\PSoC5/EZI2C.c ****     EZI2C_CLKDIV1_REG = EZI2C_DEFAULT_CLKDIV1;
  48              		.loc 1 111 0
  49 0014 0322     		movs	r2, #3
  50 0016 1133     		adds	r3, r3, #17
  51 0018 1A70     		strb	r2, [r3]
 112:Generated_Source\PSoC5/EZI2C.c ****     EZI2C_CLKDIV2_REG = EZI2C_DEFAULT_CLKDIV2;
  52              		.loc 1 112 0
  53 001a 0024     		movs	r4, #0
  54 001c 0133     		adds	r3, r3, #1
  55 001e 1C70     		strb	r4, [r3]
 113:Generated_Source\PSoC5/EZI2C.c **** 
 114:Generated_Source\PSoC5/EZI2C.c **** #if (EZI2C_TWO_ADDRESSES == EZI2C_ADDRESSES)
 115:Generated_Source\PSoC5/EZI2C.c ****     /* Set address variables */
 116:Generated_Source\PSoC5/EZI2C.c ****     EZI2C_SetAddress1(EZI2C_DEFAULT_ADDR1);
ARM GAS  C:\Users\iamna\AppData\Local\Temp\ccmX9EX9.s 			page 4


 117:Generated_Source\PSoC5/EZI2C.c ****     EZI2C_SetAddress2(EZI2C_DEFAULT_ADDR2);
 118:Generated_Source\PSoC5/EZI2C.c **** #endif /* #if (EZI2C_TWO_ADDRESSES == EZI2C_ADDRESSES) */
 119:Generated_Source\PSoC5/EZI2C.c **** 
 120:Generated_Source\PSoC5/EZI2C.c ****     /* Configure interrupt */
 121:Generated_Source\PSoC5/EZI2C.c ****     CyIntDisable         (EZI2C_ISR_NUMBER);
  56              		.loc 1 121 0
  57 0020 4FF40042 		mov	r2, #32768
  58 0024 0B4B     		ldr	r3, .L3+4
  59 0026 1A60     		str	r2, [r3]
 122:Generated_Source\PSoC5/EZI2C.c ****     CyIntSetPriority     (EZI2C_ISR_NUMBER, EZI2C_ISR_PRIORITY);
  60              		.loc 1 122 0
  61 0028 0721     		movs	r1, #7
  62 002a 0F20     		movs	r0, #15
  63 002c FFF7FEFF 		bl	CyIntSetPriority
  64              	.LVL0:
 123:Generated_Source\PSoC5/EZI2C.c ****     (void) CyIntSetVector(EZI2C_ISR_NUMBER, &EZI2C_ISR);
  65              		.loc 1 123 0
  66 0030 0949     		ldr	r1, .L3+8
  67 0032 0F20     		movs	r0, #15
  68 0034 FFF7FEFF 		bl	CyIntSetVector
  69              	.LVL1:
 124:Generated_Source\PSoC5/EZI2C.c **** 
 125:Generated_Source\PSoC5/EZI2C.c ****      /* Reset state and status to default */
 126:Generated_Source\PSoC5/EZI2C.c ****     EZI2C_curState  = EZI2C_SM_IDLE;
  70              		.loc 1 126 0
  71 0038 084B     		ldr	r3, .L3+12
  72 003a 1C70     		strb	r4, [r3]
 127:Generated_Source\PSoC5/EZI2C.c ****     EZI2C_curStatus = 0u;
  73              		.loc 1 127 0
  74 003c 084B     		ldr	r3, .L3+16
  75 003e 1C70     		strb	r4, [r3]
 128:Generated_Source\PSoC5/EZI2C.c **** 
 129:Generated_Source\PSoC5/EZI2C.c ****     /* Reset all buffer 1 indexes (primary address) */
 130:Generated_Source\PSoC5/EZI2C.c ****     EZI2C_rwOffsetS1  = 0u;
  76              		.loc 1 130 0
  77 0040 084B     		ldr	r3, .L3+20
  78 0042 1C70     		strb	r4, [r3]
 131:Generated_Source\PSoC5/EZI2C.c ****     EZI2C_rwIndexS1   = 0u;
  79              		.loc 1 131 0
  80 0044 084B     		ldr	r3, .L3+24
  81 0046 1C70     		strb	r4, [r3]
 132:Generated_Source\PSoC5/EZI2C.c ****     EZI2C_wrProtectS1 = 0u;
  82              		.loc 1 132 0
  83 0048 084B     		ldr	r3, .L3+28
  84 004a 1C80     		strh	r4, [r3]	@ movhi
  85 004c 10BD     		pop	{r4, pc}
  86              	.L4:
  87 004e 00BF     		.align	2
  88              	.L3:
  89 0050 D6490040 		.word	1073760726
  90 0054 80E100E0 		.word	-536813184
  91 0058 00000000 		.word	EZI2C_ISR
  92 005c 00000000 		.word	EZI2C_curState
  93 0060 00000000 		.word	EZI2C_curStatus
  94 0064 00000000 		.word	EZI2C_rwOffsetS1
  95 0068 00000000 		.word	EZI2C_rwIndexS1
  96 006c 00000000 		.word	EZI2C_wrProtectS1
ARM GAS  C:\Users\iamna\AppData\Local\Temp\ccmX9EX9.s 			page 5


  97              		.cfi_endproc
  98              	.LFE0:
  99              		.size	EZI2C_Init, .-EZI2C_Init
 100              		.section	.text.EZI2C_Enable,"ax",%progbits
 101              		.align	2
 102              		.global	EZI2C_Enable
 103              		.thumb
 104              		.thumb_func
 105              		.type	EZI2C_Enable, %function
 106              	EZI2C_Enable:
 107              	.LFB1:
 133:Generated_Source\PSoC5/EZI2C.c **** 
 134:Generated_Source\PSoC5/EZI2C.c **** #if (EZI2C_ADDRESSES == EZI2C_TWO_ADDRESSES)
 135:Generated_Source\PSoC5/EZI2C.c ****     /* Reset all buffer 2 indexes (secondary address) */
 136:Generated_Source\PSoC5/EZI2C.c ****     EZI2C_rwOffsetS2  = 0u;
 137:Generated_Source\PSoC5/EZI2C.c ****     EZI2C_rwIndexS2   = 0u;
 138:Generated_Source\PSoC5/EZI2C.c ****     EZI2C_wrProtectS2 = 0u;
 139:Generated_Source\PSoC5/EZI2C.c **** #endif  /* (EZI2C_ADDRESSES == EZI2C_TWO_ADDRESSES) */
 140:Generated_Source\PSoC5/EZI2C.c **** }
 141:Generated_Source\PSoC5/EZI2C.c **** 
 142:Generated_Source\PSoC5/EZI2C.c **** 
 143:Generated_Source\PSoC5/EZI2C.c **** /*******************************************************************************
 144:Generated_Source\PSoC5/EZI2C.c **** * Function Name: EZI2C_Enable
 145:Generated_Source\PSoC5/EZI2C.c **** ********************************************************************************
 146:Generated_Source\PSoC5/EZI2C.c **** *
 147:Generated_Source\PSoC5/EZI2C.c **** * Summary:
 148:Generated_Source\PSoC5/EZI2C.c **** *  Activates the hardware and begins component operation.Calls EZI2C_EnableInt()
 149:Generated_Source\PSoC5/EZI2C.c **** *  to enable the I2C component interrupt. It is not necessary to call
 150:Generated_Source\PSoC5/EZI2C.c **** *  EZI2C_Enable() because the EZI2C_Start() API calls this function, which is
 151:Generated_Source\PSoC5/EZI2C.c **** *  the preferred method to begin component operation.
 152:Generated_Source\PSoC5/EZI2C.c **** *
 153:Generated_Source\PSoC5/EZI2C.c **** * Parameters:
 154:Generated_Source\PSoC5/EZI2C.c **** *  None.
 155:Generated_Source\PSoC5/EZI2C.c **** *
 156:Generated_Source\PSoC5/EZI2C.c **** * Return:
 157:Generated_Source\PSoC5/EZI2C.c **** *  None.
 158:Generated_Source\PSoC5/EZI2C.c **** *
 159:Generated_Source\PSoC5/EZI2C.c **** *******************************************************************************/
 160:Generated_Source\PSoC5/EZI2C.c **** void EZI2C_Enable(void) 
 161:Generated_Source\PSoC5/EZI2C.c **** {
 108              		.loc 1 161 0
 109              		.cfi_startproc
 110              		@ args = 0, pretend = 0, frame = 0
 111              		@ frame_needed = 0, uses_anonymous_args = 0
 112 0000 08B5     		push	{r3, lr}
 113              		.cfi_def_cfa_offset 8
 114              		.cfi_offset 3, -8
 115              		.cfi_offset 14, -4
 162:Generated_Source\PSoC5/EZI2C.c ****     uint8 intState;
 163:Generated_Source\PSoC5/EZI2C.c **** 
 164:Generated_Source\PSoC5/EZI2C.c ****     /* Enable power to block */
 165:Generated_Source\PSoC5/EZI2C.c ****     intState = CyEnterCriticalSection();
 116              		.loc 1 165 0
 117 0002 FFF7FEFF 		bl	CyEnterCriticalSection
 118              	.LVL2:
 166:Generated_Source\PSoC5/EZI2C.c ****     EZI2C_PM_ACT_CFG_REG  |= EZI2C_ACT_PWR_EN;
 119              		.loc 1 166 0
ARM GAS  C:\Users\iamna\AppData\Local\Temp\ccmX9EX9.s 			page 6


 120 0006 084A     		ldr	r2, .L7
 121 0008 1378     		ldrb	r3, [r2]	@ zero_extendqisi2
 122 000a 43F00403 		orr	r3, r3, #4
 123 000e 1370     		strb	r3, [r2]
 167:Generated_Source\PSoC5/EZI2C.c ****     EZI2C_PM_STBY_CFG_REG |= EZI2C_STBY_PWR_EN;
 124              		.loc 1 167 0
 125 0010 1032     		adds	r2, r2, #16
 126 0012 1378     		ldrb	r3, [r2]	@ zero_extendqisi2
 127 0014 43F00403 		orr	r3, r3, #4
 128 0018 1370     		strb	r3, [r2]
 168:Generated_Source\PSoC5/EZI2C.c ****     CyExitCriticalSection(intState);
 129              		.loc 1 168 0
 130 001a FFF7FEFF 		bl	CyExitCriticalSection
 131              	.LVL3:
 169:Generated_Source\PSoC5/EZI2C.c **** 
 170:Generated_Source\PSoC5/EZI2C.c ****     /* Enable interrupt to start operation */
 171:Generated_Source\PSoC5/EZI2C.c ****     EZI2C_EnableInt();
 132              		.loc 1 171 0
 133 001e 4FF40042 		mov	r2, #32768
 134 0022 024B     		ldr	r3, .L7+4
 135 0024 1A60     		str	r2, [r3]
 136 0026 08BD     		pop	{r3, pc}
 137              	.L8:
 138              		.align	2
 139              	.L7:
 140 0028 A5430040 		.word	1073759141
 141 002c 00E100E0 		.word	-536813312
 142              		.cfi_endproc
 143              	.LFE1:
 144              		.size	EZI2C_Enable, .-EZI2C_Enable
 145              		.section	.text.EZI2C_Start,"ax",%progbits
 146              		.align	2
 147              		.global	EZI2C_Start
 148              		.thumb
 149              		.thumb_func
 150              		.type	EZI2C_Start, %function
 151              	EZI2C_Start:
 152              	.LFB2:
 172:Generated_Source\PSoC5/EZI2C.c **** }
 173:Generated_Source\PSoC5/EZI2C.c **** 
 174:Generated_Source\PSoC5/EZI2C.c **** 
 175:Generated_Source\PSoC5/EZI2C.c **** /*******************************************************************************
 176:Generated_Source\PSoC5/EZI2C.c **** * Function Name: EZI2C_Start
 177:Generated_Source\PSoC5/EZI2C.c **** ********************************************************************************
 178:Generated_Source\PSoC5/EZI2C.c **** *
 179:Generated_Source\PSoC5/EZI2C.c **** * Summary:
 180:Generated_Source\PSoC5/EZI2C.c **** *  This is the preferred method to begin component operation. EZI2C_Start(),
 181:Generated_Source\PSoC5/EZI2C.c **** *  calls the EZI2C_Init() function, and then calls the EZI2C_Enable() function.
 182:Generated_Source\PSoC5/EZI2C.c **** *  It must be executed before I2C bus operation.
 183:Generated_Source\PSoC5/EZI2C.c **** *  This function enables the component interrupt because interrupt is required
 184:Generated_Source\PSoC5/EZI2C.c **** *  for most component operations.
 185:Generated_Source\PSoC5/EZI2C.c **** *
 186:Generated_Source\PSoC5/EZI2C.c **** * Parameters:
 187:Generated_Source\PSoC5/EZI2C.c **** *  None.
 188:Generated_Source\PSoC5/EZI2C.c **** *
 189:Generated_Source\PSoC5/EZI2C.c **** * Return:
 190:Generated_Source\PSoC5/EZI2C.c **** *  None.
ARM GAS  C:\Users\iamna\AppData\Local\Temp\ccmX9EX9.s 			page 7


 191:Generated_Source\PSoC5/EZI2C.c **** *
 192:Generated_Source\PSoC5/EZI2C.c **** * Reentrant:
 193:Generated_Source\PSoC5/EZI2C.c **** *  No.
 194:Generated_Source\PSoC5/EZI2C.c **** *
 195:Generated_Source\PSoC5/EZI2C.c **** *******************************************************************************/
 196:Generated_Source\PSoC5/EZI2C.c **** void EZI2C_Start(void) 
 197:Generated_Source\PSoC5/EZI2C.c **** {
 153              		.loc 1 197 0
 154              		.cfi_startproc
 155              		@ args = 0, pretend = 0, frame = 0
 156              		@ frame_needed = 0, uses_anonymous_args = 0
 157 0000 08B5     		push	{r3, lr}
 158              		.cfi_def_cfa_offset 8
 159              		.cfi_offset 3, -8
 160              		.cfi_offset 14, -4
 198:Generated_Source\PSoC5/EZI2C.c ****     if (0u == EZI2C_initVar)
 161              		.loc 1 198 0
 162 0002 054B     		ldr	r3, .L12
 163 0004 1B78     		ldrb	r3, [r3]	@ zero_extendqisi2
 164 0006 23B9     		cbnz	r3, .L10
 199:Generated_Source\PSoC5/EZI2C.c ****     {
 200:Generated_Source\PSoC5/EZI2C.c ****         EZI2C_Init();
 165              		.loc 1 200 0
 166 0008 FFF7FEFF 		bl	EZI2C_Init
 167              	.LVL4:
 201:Generated_Source\PSoC5/EZI2C.c ****         EZI2C_initVar = 1u; /* Component initialized */
 168              		.loc 1 201 0
 169 000c 0122     		movs	r2, #1
 170 000e 024B     		ldr	r3, .L12
 171 0010 1A70     		strb	r2, [r3]
 172              	.L10:
 202:Generated_Source\PSoC5/EZI2C.c ****     }
 203:Generated_Source\PSoC5/EZI2C.c **** 
 204:Generated_Source\PSoC5/EZI2C.c ****     EZI2C_Enable();
 173              		.loc 1 204 0
 174 0012 FFF7FEFF 		bl	EZI2C_Enable
 175              	.LVL5:
 176 0016 08BD     		pop	{r3, pc}
 177              	.L13:
 178              		.align	2
 179              	.L12:
 180 0018 00000000 		.word	.LANCHOR0
 181              		.cfi_endproc
 182              	.LFE2:
 183              		.size	EZI2C_Start, .-EZI2C_Start
 184              		.section	.text.EZI2C_Stop,"ax",%progbits
 185              		.align	2
 186              		.global	EZI2C_Stop
 187              		.thumb
 188              		.thumb_func
 189              		.type	EZI2C_Stop, %function
 190              	EZI2C_Stop:
 191              	.LFB3:
 205:Generated_Source\PSoC5/EZI2C.c **** }
 206:Generated_Source\PSoC5/EZI2C.c **** 
 207:Generated_Source\PSoC5/EZI2C.c **** 
 208:Generated_Source\PSoC5/EZI2C.c **** /*******************************************************************************
ARM GAS  C:\Users\iamna\AppData\Local\Temp\ccmX9EX9.s 			page 8


 209:Generated_Source\PSoC5/EZI2C.c **** * Function Name: EZI2C_Stop
 210:Generated_Source\PSoC5/EZI2C.c **** ********************************************************************************
 211:Generated_Source\PSoC5/EZI2C.c **** *
 212:Generated_Source\PSoC5/EZI2C.c **** * Summary:
 213:Generated_Source\PSoC5/EZI2C.c **** *  Disables I2C hardware and component interrupt. The I2C bus is released if it
 214:Generated_Source\PSoC5/EZI2C.c **** *  was locked up by the component.
 215:Generated_Source\PSoC5/EZI2C.c **** *
 216:Generated_Source\PSoC5/EZI2C.c **** * Parameters:
 217:Generated_Source\PSoC5/EZI2C.c **** *  None.
 218:Generated_Source\PSoC5/EZI2C.c **** *
 219:Generated_Source\PSoC5/EZI2C.c **** * Return:
 220:Generated_Source\PSoC5/EZI2C.c **** *  None.
 221:Generated_Source\PSoC5/EZI2C.c **** *
 222:Generated_Source\PSoC5/EZI2C.c **** *******************************************************************************/
 223:Generated_Source\PSoC5/EZI2C.c **** void EZI2C_Stop(void) 
 224:Generated_Source\PSoC5/EZI2C.c **** {
 192              		.loc 1 224 0
 193              		.cfi_startproc
 194              		@ args = 0, pretend = 0, frame = 0
 195              		@ frame_needed = 0, uses_anonymous_args = 0
 196 0000 2DE9F843 		push	{r3, r4, r5, r6, r7, r8, r9, lr}
 197              		.cfi_def_cfa_offset 32
 198              		.cfi_offset 3, -32
 199              		.cfi_offset 4, -28
 200              		.cfi_offset 5, -24
 201              		.cfi_offset 6, -20
 202              		.cfi_offset 7, -16
 203              		.cfi_offset 8, -12
 204              		.cfi_offset 9, -8
 205              		.cfi_offset 14, -4
 225:Generated_Source\PSoC5/EZI2C.c ****     uint8  intState;
 226:Generated_Source\PSoC5/EZI2C.c ****     uint16 blockResetCycles;
 227:Generated_Source\PSoC5/EZI2C.c **** 
 228:Generated_Source\PSoC5/EZI2C.c ****     EZI2C_DisableInt();
 206              		.loc 1 228 0
 207 0004 4FF40048 		mov	r8, #32768
 208 0008 214B     		ldr	r3, .L16
 209 000a C3F80080 		str	r8, [r3]
 229:Generated_Source\PSoC5/EZI2C.c **** 
 230:Generated_Source\PSoC5/EZI2C.c ****     /* Store registers effected by block disable */
 231:Generated_Source\PSoC5/EZI2C.c ****     EZI2C_backup.adr     = EZI2C_ADDR_REG;
 210              		.loc 1 231 0
 211 000e 214F     		ldr	r7, .L16+4
 212 0010 3B78     		ldrb	r3, [r7]	@ zero_extendqisi2
 213 0012 214C     		ldr	r4, .L16+8
 214 0014 A370     		strb	r3, [r4, #2]
 232:Generated_Source\PSoC5/EZI2C.c ****     EZI2C_backup.clkDiv1 = EZI2C_CLKDIV1_REG;
 215              		.loc 1 232 0
 216 0016 214E     		ldr	r6, .L16+12
 217 0018 3378     		ldrb	r3, [r6]	@ zero_extendqisi2
 218 001a 2371     		strb	r3, [r4, #4]
 233:Generated_Source\PSoC5/EZI2C.c ****     EZI2C_backup.clkDiv2 = EZI2C_CLKDIV2_REG;
 219              		.loc 1 233 0
 220 001c 204D     		ldr	r5, .L16+16
 221 001e 2B78     		ldrb	r3, [r5]	@ zero_extendqisi2
 222 0020 6371     		strb	r3, [r4, #5]
 234:Generated_Source\PSoC5/EZI2C.c **** 
ARM GAS  C:\Users\iamna\AppData\Local\Temp\ccmX9EX9.s 			page 9


 235:Generated_Source\PSoC5/EZI2C.c ****     /* Calculate number of cycles to reset block */
 236:Generated_Source\PSoC5/EZI2C.c ****     blockResetCycles = ((uint16) ((uint16) EZI2C_CLKDIV2_REG << 8u) | EZI2C_CLKDIV1_REG) + 1u;
 223              		.loc 1 236 0
 224 0022 2878     		ldrb	r0, [r5]	@ zero_extendqisi2
 225 0024 3378     		ldrb	r3, [r6]	@ zero_extendqisi2
 226 0026 43EA0020 		orr	r0, r3, r0, lsl #8
 227 002a 0130     		adds	r0, r0, #1
 228              	.LVL6:
 237:Generated_Source\PSoC5/EZI2C.c **** 
 238:Generated_Source\PSoC5/EZI2C.c ****     /* Disable block */
 239:Generated_Source\PSoC5/EZI2C.c ****     EZI2C_CFG_REG &= (uint8) ~EZI2C_CFG_EN_SLAVE;
 229              		.loc 1 239 0
 230 002c DFF88490 		ldr	r9, .L16+36
 231 0030 99F80030 		ldrb	r3, [r9]	@ zero_extendqisi2
 232 0034 03F0FE03 		and	r3, r3, #254
 233 0038 89F80030 		strb	r3, [r9]
 240:Generated_Source\PSoC5/EZI2C.c ****     /* Wait for block reset before disable power */
 241:Generated_Source\PSoC5/EZI2C.c ****     CyDelayCycles((uint32) blockResetCycles);
 234              		.loc 1 241 0
 235 003c 80B2     		uxth	r0, r0
 236 003e FFF7FEFF 		bl	CyDelayCycles
 237              	.LVL7:
 242:Generated_Source\PSoC5/EZI2C.c **** 
 243:Generated_Source\PSoC5/EZI2C.c ****     /* Disable power to block */
 244:Generated_Source\PSoC5/EZI2C.c ****     intState = CyEnterCriticalSection();
 238              		.loc 1 244 0
 239 0042 FFF7FEFF 		bl	CyEnterCriticalSection
 240              	.LVL8:
 245:Generated_Source\PSoC5/EZI2C.c ****     EZI2C_PM_ACT_CFG_REG  &= (uint8) ~EZI2C_ACT_PWR_EN;
 241              		.loc 1 245 0
 242 0046 174A     		ldr	r2, .L16+20
 243 0048 1378     		ldrb	r3, [r2]	@ zero_extendqisi2
 244 004a 03F0FB03 		and	r3, r3, #251
 245 004e 1370     		strb	r3, [r2]
 246:Generated_Source\PSoC5/EZI2C.c ****     EZI2C_PM_STBY_CFG_REG &= (uint8) ~EZI2C_STBY_PWR_EN;
 246              		.loc 1 246 0
 247 0050 1032     		adds	r2, r2, #16
 248 0052 1378     		ldrb	r3, [r2]	@ zero_extendqisi2
 249 0054 03F0FB03 		and	r3, r3, #251
 250 0058 1370     		strb	r3, [r2]
 247:Generated_Source\PSoC5/EZI2C.c ****     CyExitCriticalSection(intState);
 251              		.loc 1 247 0
 252 005a FFF7FEFF 		bl	CyExitCriticalSection
 253              	.LVL9:
 248:Generated_Source\PSoC5/EZI2C.c **** 
 249:Generated_Source\PSoC5/EZI2C.c ****     /* Enable block */
 250:Generated_Source\PSoC5/EZI2C.c ****     EZI2C_CFG_REG |= (uint8) EZI2C_CFG_EN_SLAVE;
 254              		.loc 1 250 0
 255 005e 99F80030 		ldrb	r3, [r9]	@ zero_extendqisi2
 256 0062 43F00103 		orr	r3, r3, #1
 257 0066 89F80030 		strb	r3, [r9]
 251:Generated_Source\PSoC5/EZI2C.c **** 
 252:Generated_Source\PSoC5/EZI2C.c ****     /* Restore registers effected by block disable. Ticket ID#198004 */
 253:Generated_Source\PSoC5/EZI2C.c ****     EZI2C_ADDR_REG    = EZI2C_backup.adr;
 258              		.loc 1 253 0
 259 006a A378     		ldrb	r3, [r4, #2]	@ zero_extendqisi2
 260 006c 3B70     		strb	r3, [r7]
ARM GAS  C:\Users\iamna\AppData\Local\Temp\ccmX9EX9.s 			page 10


 254:Generated_Source\PSoC5/EZI2C.c ****     EZI2C_ADDR_REG    = EZI2C_backup.adr;
 261              		.loc 1 254 0
 262 006e A378     		ldrb	r3, [r4, #2]	@ zero_extendqisi2
 263 0070 3B70     		strb	r3, [r7]
 255:Generated_Source\PSoC5/EZI2C.c ****     EZI2C_CLKDIV1_REG = EZI2C_backup.clkDiv1;
 264              		.loc 1 255 0
 265 0072 2379     		ldrb	r3, [r4, #4]	@ zero_extendqisi2
 266 0074 3370     		strb	r3, [r6]
 256:Generated_Source\PSoC5/EZI2C.c ****     EZI2C_CLKDIV2_REG = EZI2C_backup.clkDiv2;
 267              		.loc 1 256 0
 268 0076 6379     		ldrb	r3, [r4, #5]	@ zero_extendqisi2
 269 0078 2B70     		strb	r3, [r5]
 257:Generated_Source\PSoC5/EZI2C.c **** 
 258:Generated_Source\PSoC5/EZI2C.c ****     EZI2C_ClearPendingInt();
 270              		.loc 1 258 0
 271 007a 0B4B     		ldr	r3, .L16+24
 272 007c C3F80080 		str	r8, [r3]
 259:Generated_Source\PSoC5/EZI2C.c **** 
 260:Generated_Source\PSoC5/EZI2C.c ****     /* Reset state and status to default */
 261:Generated_Source\PSoC5/EZI2C.c ****     EZI2C_curState  = EZI2C_SM_IDLE;
 273              		.loc 1 261 0
 274 0080 0023     		movs	r3, #0
 275 0082 0A4A     		ldr	r2, .L16+28
 276 0084 1370     		strb	r3, [r2]
 262:Generated_Source\PSoC5/EZI2C.c ****     EZI2C_curStatus = 0u;
 277              		.loc 1 262 0
 278 0086 0A4A     		ldr	r2, .L16+32
 279 0088 1370     		strb	r3, [r2]
 280 008a BDE8F883 		pop	{r3, r4, r5, r6, r7, r8, r9, pc}
 281              	.L17:
 282 008e 00BF     		.align	2
 283              	.L16:
 284 0090 80E100E0 		.word	-536813184
 285 0094 CA490040 		.word	1073760714
 286 0098 00000000 		.word	EZI2C_backup
 287 009c DB490040 		.word	1073760731
 288 00a0 DC490040 		.word	1073760732
 289 00a4 A5430040 		.word	1073759141
 290 00a8 80E200E0 		.word	-536812928
 291 00ac 00000000 		.word	EZI2C_curState
 292 00b0 00000000 		.word	EZI2C_curStatus
 293 00b4 D6490040 		.word	1073760726
 294              		.cfi_endproc
 295              	.LFE3:
 296              		.size	EZI2C_Stop, .-EZI2C_Stop
 297              		.section	.text.EZI2C_SetAddress1,"ax",%progbits
 298              		.align	2
 299              		.global	EZI2C_SetAddress1
 300              		.thumb
 301              		.thumb_func
 302              		.type	EZI2C_SetAddress1, %function
 303              	EZI2C_SetAddress1:
 304              	.LFB4:
 263:Generated_Source\PSoC5/EZI2C.c **** }
 264:Generated_Source\PSoC5/EZI2C.c **** 
 265:Generated_Source\PSoC5/EZI2C.c **** 
 266:Generated_Source\PSoC5/EZI2C.c **** /*******************************************************************************
ARM GAS  C:\Users\iamna\AppData\Local\Temp\ccmX9EX9.s 			page 11


 267:Generated_Source\PSoC5/EZI2C.c **** * Function Name: EZI2C_SetAddress1
 268:Generated_Source\PSoC5/EZI2C.c **** ********************************************************************************
 269:Generated_Source\PSoC5/EZI2C.c **** *
 270:Generated_Source\PSoC5/EZI2C.c **** * Summary:
 271:Generated_Source\PSoC5/EZI2C.c **** *  Sets the primary I2C slave address. This address is used by the master to
 272:Generated_Source\PSoC5/EZI2C.c **** *  access the primary data buffer.
 273:Generated_Source\PSoC5/EZI2C.c **** *
 274:Generated_Source\PSoC5/EZI2C.c **** * Parameters:
 275:Generated_Source\PSoC5/EZI2C.c **** *  address: Primary I2C slave address.
 276:Generated_Source\PSoC5/EZI2C.c **** *           This address is the 7-bit right-justified slave address and does not
 277:Generated_Source\PSoC5/EZI2C.c **** *           include the R/W bit.
 278:Generated_Source\PSoC5/EZI2C.c **** *           This value can be any address between 0 and 127 (0x00 to 0x7F).
 279:Generated_Source\PSoC5/EZI2C.c **** *
 280:Generated_Source\PSoC5/EZI2C.c **** * Return:
 281:Generated_Source\PSoC5/EZI2C.c **** *  None.
 282:Generated_Source\PSoC5/EZI2C.c **** *
 283:Generated_Source\PSoC5/EZI2C.c **** * Global variables:
 284:Generated_Source\PSoC5/EZI2C.c **** *  EZI2C_addrS1 - A new slave address for the first slave device is
 285:Generated_Source\PSoC5/EZI2C.c **** *  saved in it, if the component is configured to act as two slave devices.
 286:Generated_Source\PSoC5/EZI2C.c **** *
 287:Generated_Source\PSoC5/EZI2C.c **** * Reentrant:
 288:Generated_Source\PSoC5/EZI2C.c **** *  No, if two addresses are used.
 289:Generated_Source\PSoC5/EZI2C.c **** *
 290:Generated_Source\PSoC5/EZI2C.c **** *******************************************************************************/
 291:Generated_Source\PSoC5/EZI2C.c **** void EZI2C_SetAddress1(uint8 address) 
 292:Generated_Source\PSoC5/EZI2C.c **** {
 305              		.loc 1 292 0
 306              		.cfi_startproc
 307              		@ args = 0, pretend = 0, frame = 0
 308              		@ frame_needed = 0, uses_anonymous_args = 0
 309              		@ link register save eliminated.
 310              	.LVL10:
 293:Generated_Source\PSoC5/EZI2C.c **** #if (EZI2C_ONE_ADDRESS == EZI2C_ADDRESSES)
 294:Generated_Source\PSoC5/EZI2C.c ****     EZI2C_ADDR_REG = (address & EZI2C_SADDR_MASK);
 311              		.loc 1 294 0
 312 0000 00F07F00 		and	r0, r0, #127
 313              	.LVL11:
 314 0004 014B     		ldr	r3, .L19
 315 0006 1870     		strb	r0, [r3]
 316 0008 7047     		bx	lr
 317              	.L20:
 318 000a 00BF     		.align	2
 319              	.L19:
 320 000c CA490040 		.word	1073760714
 321              		.cfi_endproc
 322              	.LFE4:
 323              		.size	EZI2C_SetAddress1, .-EZI2C_SetAddress1
 324              		.section	.text.EZI2C_GetAddress1,"ax",%progbits
 325              		.align	2
 326              		.global	EZI2C_GetAddress1
 327              		.thumb
 328              		.thumb_func
 329              		.type	EZI2C_GetAddress1, %function
 330              	EZI2C_GetAddress1:
 331              	.LFB5:
 295:Generated_Source\PSoC5/EZI2C.c **** #else
 296:Generated_Source\PSoC5/EZI2C.c ****     EZI2C_addrS1   = (address & EZI2C_SADDR_MASK);
ARM GAS  C:\Users\iamna\AppData\Local\Temp\ccmX9EX9.s 			page 12


 297:Generated_Source\PSoC5/EZI2C.c **** #endif /* (EZI2C_ONE_ADDRESS == EZI2C_ADDRESSES) */
 298:Generated_Source\PSoC5/EZI2C.c **** }
 299:Generated_Source\PSoC5/EZI2C.c **** 
 300:Generated_Source\PSoC5/EZI2C.c **** 
 301:Generated_Source\PSoC5/EZI2C.c **** /*******************************************************************************
 302:Generated_Source\PSoC5/EZI2C.c **** * Function Name: EZI2C_GetAddress1
 303:Generated_Source\PSoC5/EZI2C.c **** ********************************************************************************
 304:Generated_Source\PSoC5/EZI2C.c **** *
 305:Generated_Source\PSoC5/EZI2C.c **** * Summary:
 306:Generated_Source\PSoC5/EZI2C.c **** *  Returns the primary I2C slave address.
 307:Generated_Source\PSoC5/EZI2C.c **** *  This address is the 7-bit right-justified slave address and does not include
 308:Generated_Source\PSoC5/EZI2C.c **** *  the R/W bit.
 309:Generated_Source\PSoC5/EZI2C.c **** *
 310:Generated_Source\PSoC5/EZI2C.c **** * Parameters:
 311:Generated_Source\PSoC5/EZI2C.c **** *  None.
 312:Generated_Source\PSoC5/EZI2C.c **** *
 313:Generated_Source\PSoC5/EZI2C.c **** * Return:
 314:Generated_Source\PSoC5/EZI2C.c **** *  Primary I2C slave address.
 315:Generated_Source\PSoC5/EZI2C.c **** *
 316:Generated_Source\PSoC5/EZI2C.c **** * Global variables:
 317:Generated_Source\PSoC5/EZI2C.c **** *  EZI2C_addrS1 - If component is configured to has two slave
 318:Generated_Source\PSoC5/EZI2C.c **** *  addresses than the primary address is saved here, otherwise the address is written to
 319:Generated_Source\PSoC5/EZI2C.c **** *  the register.
 320:Generated_Source\PSoC5/EZI2C.c **** *
 321:Generated_Source\PSoC5/EZI2C.c **** * Reentrant:
 322:Generated_Source\PSoC5/EZI2C.c **** *  No.
 323:Generated_Source\PSoC5/EZI2C.c **** *
 324:Generated_Source\PSoC5/EZI2C.c **** *******************************************************************************/
 325:Generated_Source\PSoC5/EZI2C.c **** uint8 EZI2C_GetAddress1(void) 
 326:Generated_Source\PSoC5/EZI2C.c **** {
 332              		.loc 1 326 0
 333              		.cfi_startproc
 334              		@ args = 0, pretend = 0, frame = 0
 335              		@ frame_needed = 0, uses_anonymous_args = 0
 336              		@ link register save eliminated.
 327:Generated_Source\PSoC5/EZI2C.c **** #if (EZI2C_ONE_ADDRESS == EZI2C_ADDRESSES)
 328:Generated_Source\PSoC5/EZI2C.c ****     return (EZI2C_ADDR_REG);
 337              		.loc 1 328 0
 338 0000 014B     		ldr	r3, .L22
 339 0002 1878     		ldrb	r0, [r3]	@ zero_extendqisi2
 329:Generated_Source\PSoC5/EZI2C.c **** #else
 330:Generated_Source\PSoC5/EZI2C.c ****     return (EZI2C_addrS1);
 331:Generated_Source\PSoC5/EZI2C.c **** #endif /* (EZI2C_ONE_ADDRESS == EZI2C_ADDRESSES) */
 332:Generated_Source\PSoC5/EZI2C.c **** }
 340              		.loc 1 332 0
 341 0004 7047     		bx	lr
 342              	.L23:
 343 0006 00BF     		.align	2
 344              	.L22:
 345 0008 CA490040 		.word	1073760714
 346              		.cfi_endproc
 347              	.LFE5:
 348              		.size	EZI2C_GetAddress1, .-EZI2C_GetAddress1
 349              		.section	.text.EZI2C_GetActivity,"ax",%progbits
 350              		.align	2
 351              		.global	EZI2C_GetActivity
 352              		.thumb
ARM GAS  C:\Users\iamna\AppData\Local\Temp\ccmX9EX9.s 			page 13


 353              		.thumb_func
 354              		.type	EZI2C_GetActivity, %function
 355              	EZI2C_GetActivity:
 356              	.LFB6:
 333:Generated_Source\PSoC5/EZI2C.c **** 
 334:Generated_Source\PSoC5/EZI2C.c **** 
 335:Generated_Source\PSoC5/EZI2C.c **** /*******************************************************************************
 336:Generated_Source\PSoC5/EZI2C.c **** * Function Name: EZI2C_GetActivity
 337:Generated_Source\PSoC5/EZI2C.c **** ********************************************************************************
 338:Generated_Source\PSoC5/EZI2C.c **** *
 339:Generated_Source\PSoC5/EZI2C.c **** * Summary:
 340:Generated_Source\PSoC5/EZI2C.c **** *  Returns a non-zero value if an I2C read or write cycle has occurred since
 341:Generated_Source\PSoC5/EZI2C.c **** *  the last time this function was called. The activity flag resets to zero at
 342:Generated_Source\PSoC5/EZI2C.c **** *  the end of this function call.
 343:Generated_Source\PSoC5/EZI2C.c **** *  The Read and Write busy flags are cleared when read, but the “BUSY” flag is
 344:Generated_Source\PSoC5/EZI2C.c **** *  only cleared when slave is free (i.e master finishes communication with
 345:Generated_Source\PSoC5/EZI2C.c **** *  slave generating Stop or repeated Start condition).
 346:Generated_Source\PSoC5/EZI2C.c **** *
 347:Generated_Source\PSoC5/EZI2C.c **** * Parameters:
 348:Generated_Source\PSoC5/EZI2C.c **** *  None
 349:Generated_Source\PSoC5/EZI2C.c **** *
 350:Generated_Source\PSoC5/EZI2C.c **** * Return:
 351:Generated_Source\PSoC5/EZI2C.c **** *  Status of I2C activity.
 352:Generated_Source\PSoC5/EZI2C.c **** *
 353:Generated_Source\PSoC5/EZI2C.c **** *   EZI2C_STATUS_READ1   Set if a Read sequence is detected for the first
 354:Generated_Source\PSoC5/EZI2C.c **** *                                   address. Cleared when the status is read.
 355:Generated_Source\PSoC5/EZI2C.c **** *
 356:Generated_Source\PSoC5/EZI2C.c **** *   EZI2C_STATUS_WRITE1  Set if a Write sequence is detected for the first
 357:Generated_Source\PSoC5/EZI2C.c **** *                                   address. Cleared when the status is  read.
 358:Generated_Source\PSoC5/EZI2C.c **** *
 359:Generated_Source\PSoC5/EZI2C.c **** *   EZI2C_STATUS_READ2   Set if a Read sequence is detected for the second
 360:Generated_Source\PSoC5/EZI2C.c **** *                                   address (if enabled). Cleared when the status
 361:Generated_Source\PSoC5/EZI2C.c **** *                                   read.
 362:Generated_Source\PSoC5/EZI2C.c **** *
 363:Generated_Source\PSoC5/EZI2C.c **** *   EZI2C_STATUS_WRITE2  Set if a Write sequence is detected for the second
 364:Generated_Source\PSoC5/EZI2C.c **** *                                   address (if enabled). Cleared when the status is
 365:Generated_Source\PSoC5/EZI2C.c **** *                                   read.
 366:Generated_Source\PSoC5/EZI2C.c **** *
 367:Generated_Source\PSoC5/EZI2C.c **** *   EZI2C_STATUS_BUSY    Set when the master starts communication with
 368:Generated_Source\PSoC5/EZI2C.c **** *                                   the slave (the slave is addressed with Start or
 369:Generated_Source\PSoC5/EZI2C.c **** *                                   repeated Start) and cleared when the master
 370:Generated_Source\PSoC5/EZI2C.c **** *                                   finishes communication (a Stop or repeated
 371:Generated_Source\PSoC5/EZI2C.c **** *                                   Start condition is generated).
 372:Generated_Source\PSoC5/EZI2C.c **** *
 373:Generated_Source\PSoC5/EZI2C.c **** *   EZI2C_STATUS_ERR     Set when the I2C hardware is detected, cleared
 374:Generated_Source\PSoC5/EZI2C.c **** *                                   when the status is read.
 375:Generated_Source\PSoC5/EZI2C.c **** *
 376:Generated_Source\PSoC5/EZI2C.c **** * Global variables:
 377:Generated_Source\PSoC5/EZI2C.c **** *  EZI2C_curStatus - The global variable which stores the current
 378:Generated_Source\PSoC5/EZI2C.c **** *  component status.
 379:Generated_Source\PSoC5/EZI2C.c **** *
 380:Generated_Source\PSoC5/EZI2C.c **** * Reentrant:
 381:Generated_Source\PSoC5/EZI2C.c **** *  No.
 382:Generated_Source\PSoC5/EZI2C.c **** *
 383:Generated_Source\PSoC5/EZI2C.c **** *******************************************************************************/
 384:Generated_Source\PSoC5/EZI2C.c **** uint8 EZI2C_GetActivity(void) 
 385:Generated_Source\PSoC5/EZI2C.c **** {
ARM GAS  C:\Users\iamna\AppData\Local\Temp\ccmX9EX9.s 			page 14


 357              		.loc 1 385 0
 358              		.cfi_startproc
 359              		@ args = 0, pretend = 0, frame = 0
 360              		@ frame_needed = 0, uses_anonymous_args = 0
 361              		@ link register save eliminated.
 386:Generated_Source\PSoC5/EZI2C.c ****     uint8 tmpStatus;
 387:Generated_Source\PSoC5/EZI2C.c **** 
 388:Generated_Source\PSoC5/EZI2C.c ****     EZI2C_DisableInt(); /* Lock from component interrupt */
 362              		.loc 1 388 0
 363 0000 4FF40041 		mov	r1, #32768
 364 0004 054B     		ldr	r3, .L25
 365 0006 1960     		str	r1, [r3]
 389:Generated_Source\PSoC5/EZI2C.c **** 
 390:Generated_Source\PSoC5/EZI2C.c ****     tmpStatus = EZI2C_curStatus;
 366              		.loc 1 390 0
 367 0008 054A     		ldr	r2, .L25+4
 368 000a 1078     		ldrb	r0, [r2]	@ zero_extendqisi2
 369              	.LVL12:
 391:Generated_Source\PSoC5/EZI2C.c ****     /* Clear status bits. Do not touch busy status */
 392:Generated_Source\PSoC5/EZI2C.c ****     EZI2C_curStatus &= EZI2C_STATUS_BUSY;
 370              		.loc 1 392 0
 371 000c 1378     		ldrb	r3, [r2]	@ zero_extendqisi2
 372 000e 03F01003 		and	r3, r3, #16
 373 0012 DBB2     		uxtb	r3, r3
 374 0014 1370     		strb	r3, [r2]
 393:Generated_Source\PSoC5/EZI2C.c **** 
 394:Generated_Source\PSoC5/EZI2C.c ****     EZI2C_EnableInt(); /* Release lock */
 375              		.loc 1 394 0
 376 0016 034B     		ldr	r3, .L25+8
 377 0018 1960     		str	r1, [r3]
 395:Generated_Source\PSoC5/EZI2C.c **** 
 396:Generated_Source\PSoC5/EZI2C.c ****     return (tmpStatus);
 397:Generated_Source\PSoC5/EZI2C.c **** }
 378              		.loc 1 397 0
 379 001a 7047     		bx	lr
 380              	.L26:
 381              		.align	2
 382              	.L25:
 383 001c 80E100E0 		.word	-536813184
 384 0020 00000000 		.word	EZI2C_curStatus
 385 0024 00E100E0 		.word	-536813312
 386              		.cfi_endproc
 387              	.LFE6:
 388              		.size	EZI2C_GetActivity, .-EZI2C_GetActivity
 389              		.section	.text.EZI2C_SetBuffer1,"ax",%progbits
 390              		.align	2
 391              		.global	EZI2C_SetBuffer1
 392              		.thumb
 393              		.thumb_func
 394              		.type	EZI2C_SetBuffer1, %function
 395              	EZI2C_SetBuffer1:
 396              	.LFB7:
 398:Generated_Source\PSoC5/EZI2C.c **** 
 399:Generated_Source\PSoC5/EZI2C.c **** 
 400:Generated_Source\PSoC5/EZI2C.c **** /*******************************************************************************
 401:Generated_Source\PSoC5/EZI2C.c **** * Function Name: EZI2C_SetBuffer1
 402:Generated_Source\PSoC5/EZI2C.c **** ********************************************************************************
ARM GAS  C:\Users\iamna\AppData\Local\Temp\ccmX9EX9.s 			page 15


 403:Generated_Source\PSoC5/EZI2C.c **** *
 404:Generated_Source\PSoC5/EZI2C.c **** * Summary:
 405:Generated_Source\PSoC5/EZI2C.c **** *  Sets up the data buffer to be exposed to the master on a primary slave
 406:Generated_Source\PSoC5/EZI2C.c **** *  address request.
 407:Generated_Source\PSoC5/EZI2C.c **** *
 408:Generated_Source\PSoC5/EZI2C.c **** * Parameters:
 409:Generated_Source\PSoC5/EZI2C.c **** *  bufSize:    Size of the buffer in bytes.
 410:Generated_Source\PSoC5/EZI2C.c **** *  rwBoundary: Number of data bytes starting from the beginning of the buffer
 411:Generated_Source\PSoC5/EZI2C.c **** *              with read and write access. Data bytes located at offset
 412:Generated_Source\PSoC5/EZI2C.c **** *              rwBoundary or greater are read only.
 413:Generated_Source\PSoC5/EZI2C.c **** *              This value must be less than or equal to the buffer size.
 414:Generated_Source\PSoC5/EZI2C.c **** *  dataPtr:    Pointer to the data buffer.
 415:Generated_Source\PSoC5/EZI2C.c **** *
 416:Generated_Source\PSoC5/EZI2C.c **** * Return:
 417:Generated_Source\PSoC5/EZI2C.c **** *  None.
 418:Generated_Source\PSoC5/EZI2C.c **** *
 419:Generated_Source\PSoC5/EZI2C.c **** * Global variables:
 420:Generated_Source\PSoC5/EZI2C.c **** *  EZI2C_dataPtrS1 - Stores the pointer to the data exposed to an I2C
 421:Generated_Source\PSoC5/EZI2C.c **** *  master for the first slave address, is modified with the the new pointer to    the    ?? no sens
 422:Generated_Source\PSoC5/EZI2C.c **** *  data passed by the function parameter.
 423:Generated_Source\PSoC5/EZI2C.c **** *
 424:Generated_Source\PSoC5/EZI2C.c **** *  EZI2C_rwOffsetS1 - Stores an offset for read and write operations, is
 425:Generated_Source\PSoC5/EZI2C.c **** *  modified at each write sequence of the first slave address is?? reset.   ?
 426:Generated_Source\PSoC5/EZI2C.c **** *
 427:Generated_Source\PSoC5/EZI2C.c **** *  EZI2C_rwIndexS1 - Stores the pointer to the next value to be read or
 428:Generated_Source\PSoC5/EZI2C.c **** *  written for the first slave address is?? set to 0.  ??
 429:Generated_Source\PSoC5/EZI2C.c **** *
 430:Generated_Source\PSoC5/EZI2C.c **** * Reentrant:
 431:Generated_Source\PSoC5/EZI2C.c **** *  No.
 432:Generated_Source\PSoC5/EZI2C.c **** *
 433:Generated_Source\PSoC5/EZI2C.c **** *******************************************************************************/
 434:Generated_Source\PSoC5/EZI2C.c **** void EZI2C_SetBuffer1(uint16 bufSize, uint16 rwBoundary, volatile uint8 * dataPtr) 
 435:Generated_Source\PSoC5/EZI2C.c **** {
 397              		.loc 1 435 0
 398              		.cfi_startproc
 399              		@ args = 0, pretend = 0, frame = 0
 400              		@ frame_needed = 0, uses_anonymous_args = 0
 401              		@ link register save eliminated.
 402              	.LVL13:
 403 0000 10B4     		push	{r4}
 404              		.cfi_def_cfa_offset 4
 405              		.cfi_offset 4, -4
 436:Generated_Source\PSoC5/EZI2C.c ****     EZI2C_DisableInt(); /* Lock from component interrupt */
 406              		.loc 1 436 0
 407 0002 4FF40044 		mov	r4, #32768
 408 0006 0A4B     		ldr	r3, .L30
 409 0008 1C60     		str	r4, [r3]
 437:Generated_Source\PSoC5/EZI2C.c **** 
 438:Generated_Source\PSoC5/EZI2C.c ****     if (NULL != dataPtr)
 410              		.loc 1 438 0
 411 000a 32B1     		cbz	r2, .L28
 412 000c 1346     		mov	r3, r2
 439:Generated_Source\PSoC5/EZI2C.c ****     {
 440:Generated_Source\PSoC5/EZI2C.c ****         /* Configure buffer 1 */
 441:Generated_Source\PSoC5/EZI2C.c ****         EZI2C_dataPtrS1   = dataPtr;
 413              		.loc 1 441 0
 414 000e 094A     		ldr	r2, .L30+4
ARM GAS  C:\Users\iamna\AppData\Local\Temp\ccmX9EX9.s 			page 16


 415              	.LVL14:
 416 0010 1360     		str	r3, [r2]
 442:Generated_Source\PSoC5/EZI2C.c ****         EZI2C_bufSizeS1   = bufSize;
 417              		.loc 1 442 0
 418 0012 094B     		ldr	r3, .L30+8
 419              	.LVL15:
 420 0014 1880     		strh	r0, [r3]	@ movhi
 443:Generated_Source\PSoC5/EZI2C.c ****         EZI2C_wrProtectS1 = rwBoundary;
 421              		.loc 1 443 0
 422 0016 094B     		ldr	r3, .L30+12
 423 0018 1980     		strh	r1, [r3]	@ movhi
 424              	.LVL16:
 425              	.L28:
 444:Generated_Source\PSoC5/EZI2C.c ****     }
 445:Generated_Source\PSoC5/EZI2C.c **** 
 446:Generated_Source\PSoC5/EZI2C.c ****     /* Clear buffer offset and index */
 447:Generated_Source\PSoC5/EZI2C.c ****     EZI2C_rwOffsetS1 = 0u;
 426              		.loc 1 447 0
 427 001a 0023     		movs	r3, #0
 428 001c 084A     		ldr	r2, .L30+16
 429 001e 1370     		strb	r3, [r2]
 448:Generated_Source\PSoC5/EZI2C.c ****     EZI2C_rwIndexS1  = 0u;
 430              		.loc 1 448 0
 431 0020 084A     		ldr	r2, .L30+20
 432 0022 1370     		strb	r3, [r2]
 449:Generated_Source\PSoC5/EZI2C.c **** 
 450:Generated_Source\PSoC5/EZI2C.c ****     EZI2C_EnableInt(); /* Release lock */
 433              		.loc 1 450 0
 434 0024 4FF40042 		mov	r2, #32768
 435 0028 074B     		ldr	r3, .L30+24
 436 002a 1A60     		str	r2, [r3]
 451:Generated_Source\PSoC5/EZI2C.c **** }
 437              		.loc 1 451 0
 438 002c 10BC     		pop	{r4}
 439              		.cfi_restore 4
 440              		.cfi_def_cfa_offset 0
 441 002e 7047     		bx	lr
 442              	.L31:
 443              		.align	2
 444              	.L30:
 445 0030 80E100E0 		.word	-536813184
 446 0034 00000000 		.word	EZI2C_dataPtrS1
 447 0038 00000000 		.word	EZI2C_bufSizeS1
 448 003c 00000000 		.word	EZI2C_wrProtectS1
 449 0040 00000000 		.word	EZI2C_rwOffsetS1
 450 0044 00000000 		.word	EZI2C_rwIndexS1
 451 0048 00E100E0 		.word	-536813312
 452              		.cfi_endproc
 453              	.LFE7:
 454              		.size	EZI2C_SetBuffer1, .-EZI2C_SetBuffer1
 455              		.comm	EZI2C_rwIndexS1,1,1
 456              		.comm	EZI2C_rwOffsetS1,1,1
 457              		.comm	EZI2C_wrProtectS1,2,2
 458              		.comm	EZI2C_bufSizeS1,2,2
 459              		.comm	EZI2C_dataPtrS1,4,4
 460              		.comm	EZI2C_curState,1,1
 461              		.comm	EZI2C_curStatus,1,1
ARM GAS  C:\Users\iamna\AppData\Local\Temp\ccmX9EX9.s 			page 17


 462              		.global	EZI2C_initVar
 463              		.bss
 464              		.set	.LANCHOR0,. + 0
 465              		.type	EZI2C_initVar, %object
 466              		.size	EZI2C_initVar, 1
 467              	EZI2C_initVar:
 468 0000 00       		.space	1
 469              		.text
 470              	.Letext0:
 471              		.file 2 "Generated_Source\\PSoC5\\cytypes.h"
 472              		.file 3 "Generated_Source\\PSoC5\\EZI2C.h"
 473              		.file 4 "Generated_Source\\PSoC5\\EZI2C_PVT.h"
 474              		.file 5 "Generated_Source\\PSoC5\\CyLib.h"