ARM GAS  C:\Users\iamna\AppData\Local\Temp\ccyFJAeR.s 			page 1


   1              		.syntax unified
   2              		.cpu cortex-m3
   3              		.fpu softvfp
   4              		.eabi_attribute 20, 1
   5              		.eabi_attribute 21, 1
   6              		.eabi_attribute 23, 3
   7              		.eabi_attribute 24, 1
   8              		.eabi_attribute 25, 1
   9              		.eabi_attribute 26, 1
  10              		.eabi_attribute 30, 1
  11              		.eabi_attribute 34, 1
  12              		.eabi_attribute 18, 4
  13              		.thumb
  14              		.syntax unified
  15              		.file	"main.c"
  16              		.text
  17              	.Ltext0:
  18              		.cfi_sections	.debug_frame
  19              		.section	.text.ADCInterruptHandler,"ax",%progbits
  20              		.align	2
  21              		.global	ADCInterruptHandler
  22              		.thumb
  23              		.thumb_func
  24              		.type	ADCInterruptHandler, %function
  25              	ADCInterruptHandler:
  26              	.LFB66:
  27              		.file 1 "main.c"
   1:main.c        **** /* ========================================
   2:main.c        ****  *
   3:main.c        ****  * Copyright: Nadim Ahmed, Metropolia University of Applied Science, Finland, 2024
   4:main.c        ****  * 
   5:main.c        ****  * May 26, 2024
   6:main.c        ****  *
   7:main.c        ****  * PSoC Design Course 2024: Data Acquisition add-on for Raspberry Pi Pico W
   8:main.c        ****  *
   9:main.c        ****  * PSoC device acts as an I2C slave to acquire analog sensor data and convert it to temperature rea
  10:main.c        ****  *
  11:main.c        ****  * The temperature readings are transmitted to the I2C master.
  12:main.c        ****  * 
  13:main.c        ****  * CC-NA-SA 4.0
  14:main.c        ****  *
  15:main.c        ****  * ========================================
  16:main.c        **** */
  17:main.c        **** 
  18:main.c        **** 
  19:main.c        **** #include "project.h"
  20:main.c        **** #include "stdio.h"
  21:main.c        **** #include "stdbool.h"
  22:main.c        **** 
  23:main.c        **** #define databuffer 10
  24:main.c        **** #define debugebuffer 256
  25:main.c        **** #define i2cbuffer 4
  26:main.c        **** 
  27:main.c        **** // Can be define only one of "send_last_reading" or "fullbuffer"
  28:main.c        **** #define send_last_reading
  29:main.c        **** //#define fullbuffer
  30:main.c        **** 
ARM GAS  C:\Users\iamna\AppData\Local\Temp\ccyFJAeR.s 			page 2


  31:main.c        **** bool isDataReady = false;
  32:main.c        **** 
  33:main.c        **** uint32 adc1;
  34:main.c        **** uint32 adc2;
  35:main.c        **** uint32 adc3;
  36:main.c        **** uint32 adc4;
  37:main.c        **** uint32 adcCount;
  38:main.c        **** 
  39:main.c        **** uint32 TotalADC1;
  40:main.c        **** uint32 TotalADC2;
  41:main.c        **** uint32 TotalADC3;
  42:main.c        **** uint32 TotalADC4;
  43:main.c        **** uint32 adcCount2;
  44:main.c        **** 
  45:main.c        **** uint8 temp1;
  46:main.c        **** uint8 temp2;
  47:main.c        **** uint8 temp3;
  48:main.c        **** uint8 temp4;
  49:main.c        **** 
  50:main.c        **** 
  51:main.c        ****     
  52:main.c        **** CY_ISR_PROTO(ADCInterruptHandler);
  53:main.c        **** CY_ISR(TimerInterruptHandler);
  54:main.c        **** 
  55:main.c        **** void calculateTemp();
  56:main.c        **** 
  57:main.c        **** // Can be send the complete buffer if want 4 x 10
  58:main.c        **** struct
  59:main.c        **** {
  60:main.c        **** uint8 data0[databuffer];
  61:main.c        **** uint8 data1[databuffer];
  62:main.c        **** uint8 data2[databuffer];
  63:main.c        **** uint8 data3[databuffer];
  64:main.c        **** } __attribute__ ((packed)) ezi2cBuffer;
  65:main.c        **** 
  66:main.c        **** int main(void)
  67:main.c        **** {
  68:main.c        ****     CyGlobalIntEnable; /* Enable global interrupts. */
  69:main.c        ****     char transmit_buffer[debugebuffer];
  70:main.c        ****     uint8 i2cbuf[i2cbuffer] = {0,0,0,0};
  71:main.c        ****     int count = 0;
  72:main.c        ****     /* Place your initialization/startup code here (e.g. MyInst_Start()) */
  73:main.c        ****     UART_1_Start();
  74:main.c        ****     ADC_SAR_Seq_1_Start();
  75:main.c        ****     Timer_Start();
  76:main.c        ****     EZI2C_Start();
  77:main.c        ****     memset(&ezi2cBuffer, 0, sizeof(ezi2cBuffer));
  78:main.c        ****     
  79:main.c        ****     //if want to send only last 4 data
  80:main.c        **** #ifdef send_last_reading
  81:main.c        ****     EZI2C_SetBuffer1(i2cbuffer,0,i2cbuf);
  82:main.c        **** #endif
  83:main.c        ****     
  84:main.c        ****     // if want to send full buffer
  85:main.c        **** #ifdef fullbuffer
  86:main.c        ****     EZI2C_SetBuffer1(sizeof(ezi2cBuffer),0,(uint8 *)&ezi2cBuffer);
  87:main.c        **** #endif
ARM GAS  C:\Users\iamna\AppData\Local\Temp\ccyFJAeR.s 			page 3


  88:main.c        ****     
  89:main.c        ****     ADC_SAR_Seq_1_StartConvert();
  90:main.c        ****     ADC_ISR_StartEx(ADCInterruptHandler);
  91:main.c        ****     Timer_ISR_StartEx(TimerInterruptHandler);
  92:main.c        ****    
  93:main.c        ****     UART_1_PutString("COM Port Open\r\n");
  94:main.c        ****     for(;;)
  95:main.c        ****     {   
  96:main.c        ****         /* Place your application code here. */
  97:main.c        ****         
  98:main.c        ****         // send only last temperature value to I2C master for 4 sensors
  99:main.c        **** #ifdef send_last_reading
 100:main.c        ****         if(isDataReady){
 101:main.c        ****             isDataReady = false;
 102:main.c        ****             calculateTemp();
 103:main.c        ****             sprintf(transmit_buffer,"Temp1: %d C Temp2: %d C Temp3: %d C Temp4: %d C\r\n", 
 104:main.c        ****                 temp1, temp2, temp3, temp4);
 105:main.c        ****             UART_1_PutString(transmit_buffer);
 106:main.c        ****           
 107:main.c        ****             ezi2cBuffer.data0[count]=temp1;
 108:main.c        ****             ezi2cBuffer.data1[count]=temp2;
 109:main.c        ****             ezi2cBuffer.data2[count]=temp3;
 110:main.c        ****             ezi2cBuffer.data3[count]=temp4;
 111:main.c        ****      
 112:main.c        ****             i2cbuf[0] = ezi2cBuffer.data0[count];
 113:main.c        ****             i2cbuf[1] = ezi2cBuffer.data1[count];
 114:main.c        ****             i2cbuf[2] = ezi2cBuffer.data2[count];
 115:main.c        ****             i2cbuf[3] = ezi2cBuffer.data3[count];
 116:main.c        ****             count++;
 117:main.c        ****             if ( count > 10) count = 0;
 118:main.c        **** #endif    
 119:main.c        ****         // send full buffer temperature value to I2C master for 4 sensors 4 x 10
 120:main.c        **** #ifdef fullbuffer
 121:main.c        ****         if(isDataReady){
 122:main.c        ****             isDataReady = false;
 123:main.c        ****             calculateTemp();
 124:main.c        ****             sprintf(transmit_buffer,"Temp1: %d C Temp2: %d C Temp3: %d C Temp4: %d C\r\n", 
 125:main.c        ****                 temp1, temp2, temp3, temp4);
 126:main.c        ****             UART_1_PutString(transmit_buffer);
 127:main.c        ****             
 128:main.c        ****             ezi2cBuffer.data0[count]=temp1;
 129:main.c        ****             ezi2cBuffer.data1[count]=temp2;
 130:main.c        ****             ezi2cBuffer.data2[count]=temp3;
 131:main.c        ****             ezi2cBuffer.data3[count]=temp4;
 132:main.c        ****             
 133:main.c        ****              if (count == 10){
 134:main.c        ****                 // Shift the buffer to remove the oldest value, send last 10 values
 135:main.c        ****                 memcpy(ezi2cBuffer.data0, &ezi2cBuffer.data0[1], (10 ) * sizeof(uint8_t));
 136:main.c        ****                 memcpy(ezi2cBuffer.data1, &ezi2cBuffer.data1[1], (10 ) * sizeof(uint8_t));
 137:main.c        ****                 memcpy(ezi2cBuffer.data2, &ezi2cBuffer.data2[1], (10 ) * sizeof(uint8_t));
 138:main.c        ****                 memcpy(ezi2cBuffer.data3, &ezi2cBuffer.data3[1], (10 ) * sizeof(uint8_t));
 139:main.c        ****             }
 140:main.c        ****             
 141:main.c        ****             count++;
 142:main.c        ****             if ( count > 10) count = 10;
 143:main.c        **** #endif
 144:main.c        ****             
ARM GAS  C:\Users\iamna\AppData\Local\Temp\ccyFJAeR.s 			page 4


 145:main.c        ****         }
 146:main.c        ****         
 147:main.c        ****     }
 148:main.c        **** }
 149:main.c        **** 
 150:main.c        **** // Calculates the tempreture for 4 sensor
 151:main.c        **** void calculateTemp(){
 152:main.c        ****     temp1 = (TotalADC1/adcCount2)/10;
 153:main.c        ****     temp2 = (TotalADC2/adcCount2)/10;
 154:main.c        ****     temp3 = (TotalADC3/adcCount2)/10;
 155:main.c        ****     temp4 = (TotalADC4/adcCount2)/10;
 156:main.c        **** }
 157:main.c        **** 
 158:main.c        **** // Collect the analog sensor data 25000 SPS ADC Interrupt Service Routine
 159:main.c        **** 
 160:main.c        **** CY_ISR(ADCInterruptHandler) {
  28              		.loc 1 160 0
  29              		.cfi_startproc
  30              		@ args = 0, pretend = 0, frame = 0
  31              		@ frame_needed = 0, uses_anonymous_args = 0
  32 0000 08B5     		push	{r3, lr}
  33              		.cfi_def_cfa_offset 8
  34              		.cfi_offset 3, -8
  35              		.cfi_offset 14, -4
 161:main.c        ****     adc1 += ADC_SAR_Seq_1_CountsTo_mVolts(ADC_SAR_Seq_1_GetResult16(0));
  36              		.loc 1 161 0
  37 0002 0020     		movs	r0, #0
  38 0004 FFF7FEFF 		bl	ADC_SAR_Seq_1_GetResult16
  39              	.LVL0:
  40 0008 FFF7FEFF 		bl	ADC_SAR_Seq_1_CountsTo_mVolts
  41              	.LVL1:
  42 000c 114A     		ldr	r2, .L3
  43 000e 1368     		ldr	r3, [r2]
  44 0010 1844     		add	r0, r0, r3
  45 0012 1060     		str	r0, [r2]
 162:main.c        ****     adc2 += ADC_SAR_Seq_1_CountsTo_mVolts(ADC_SAR_Seq_1_GetResult16(1));
  46              		.loc 1 162 0
  47 0014 0120     		movs	r0, #1
  48 0016 FFF7FEFF 		bl	ADC_SAR_Seq_1_GetResult16
  49              	.LVL2:
  50 001a FFF7FEFF 		bl	ADC_SAR_Seq_1_CountsTo_mVolts
  51              	.LVL3:
  52 001e 0E4A     		ldr	r2, .L3+4
  53 0020 1368     		ldr	r3, [r2]
  54 0022 1844     		add	r0, r0, r3
  55 0024 1060     		str	r0, [r2]
 163:main.c        ****     adc3 += ADC_SAR_Seq_1_CountsTo_mVolts(ADC_SAR_Seq_1_GetResult16(2));
  56              		.loc 1 163 0
  57 0026 0220     		movs	r0, #2
  58 0028 FFF7FEFF 		bl	ADC_SAR_Seq_1_GetResult16
  59              	.LVL4:
  60 002c FFF7FEFF 		bl	ADC_SAR_Seq_1_CountsTo_mVolts
  61              	.LVL5:
  62 0030 0A4A     		ldr	r2, .L3+8
  63 0032 1368     		ldr	r3, [r2]
  64 0034 1844     		add	r0, r0, r3
  65 0036 1060     		str	r0, [r2]
ARM GAS  C:\Users\iamna\AppData\Local\Temp\ccyFJAeR.s 			page 5


 164:main.c        ****     adc4 += ADC_SAR_Seq_1_CountsTo_mVolts(ADC_SAR_Seq_1_GetResult16(3));
  66              		.loc 1 164 0
  67 0038 0320     		movs	r0, #3
  68 003a FFF7FEFF 		bl	ADC_SAR_Seq_1_GetResult16
  69              	.LVL6:
  70 003e FFF7FEFF 		bl	ADC_SAR_Seq_1_CountsTo_mVolts
  71              	.LVL7:
  72 0042 074A     		ldr	r2, .L3+12
  73 0044 1368     		ldr	r3, [r2]
  74 0046 1844     		add	r0, r0, r3
  75 0048 1060     		str	r0, [r2]
 165:main.c        ****     adcCount++;
  76              		.loc 1 165 0
  77 004a 064A     		ldr	r2, .L3+16
  78 004c 1368     		ldr	r3, [r2]
  79 004e 0133     		adds	r3, r3, #1
  80 0050 1360     		str	r3, [r2]
  81 0052 08BD     		pop	{r3, pc}
  82              	.L4:
  83              		.align	2
  84              	.L3:
  85 0054 00000000 		.word	adc1
  86 0058 00000000 		.word	adc2
  87 005c 00000000 		.word	adc3
  88 0060 00000000 		.word	adc4
  89 0064 00000000 		.word	adcCount
  90              		.cfi_endproc
  91              	.LFE66:
  92              		.size	ADCInterruptHandler, .-ADCInterruptHandler
  93              		.section	.text.TimerInterruptHandler,"ax",%progbits
  94              		.align	2
  95              		.global	TimerInterruptHandler
  96              		.thumb
  97              		.thumb_func
  98              		.type	TimerInterruptHandler, %function
  99              	TimerInterruptHandler:
 100              	.LFB67:
 166:main.c        ****     
 167:main.c        **** }
 168:main.c        **** 
 169:main.c        **** 
 170:main.c        **** // Timer Interrupt Service Routine Down sample 10 times in a second
 171:main.c        **** CY_ISR(TimerInterruptHandler) {
 101              		.loc 1 171 0
 102              		.cfi_startproc
 103              		@ args = 0, pretend = 0, frame = 0
 104              		@ frame_needed = 0, uses_anonymous_args = 0
 105 0000 70B5     		push	{r4, r5, r6, lr}
 106              		.cfi_def_cfa_offset 16
 107              		.cfi_offset 4, -16
 108              		.cfi_offset 5, -12
 109              		.cfi_offset 6, -8
 110              		.cfi_offset 14, -4
 172:main.c        ****     Timer_ReadStatusRegister();
 111              		.loc 1 172 0
 112 0002 FFF7FEFF 		bl	Timer_ReadStatusRegister
 113              	.LVL8:
ARM GAS  C:\Users\iamna\AppData\Local\Temp\ccyFJAeR.s 			page 6


 173:main.c        ****     ADC_ISR_Disable();
 114              		.loc 1 173 0
 115 0006 FFF7FEFF 		bl	ADC_ISR_Disable
 116              	.LVL9:
 174:main.c        ****     TotalADC1 = adc1;
 117              		.loc 1 174 0
 118 000a 104D     		ldr	r5, .L7
 119 000c 2A68     		ldr	r2, [r5]
 120 000e 104B     		ldr	r3, .L7+4
 121 0010 1A60     		str	r2, [r3]
 175:main.c        ****     TotalADC2 = adc2;
 122              		.loc 1 175 0
 123 0012 104C     		ldr	r4, .L7+8
 124 0014 2268     		ldr	r2, [r4]
 125 0016 104B     		ldr	r3, .L7+12
 126 0018 1A60     		str	r2, [r3]
 176:main.c        ****     TotalADC3 = adc3;
 127              		.loc 1 176 0
 128 001a 1048     		ldr	r0, .L7+16
 129 001c 0268     		ldr	r2, [r0]
 130 001e 104B     		ldr	r3, .L7+20
 131 0020 1A60     		str	r2, [r3]
 177:main.c        ****     TotalADC4 = adc4;
 132              		.loc 1 177 0
 133 0022 1049     		ldr	r1, .L7+24
 134 0024 0A68     		ldr	r2, [r1]
 135 0026 104B     		ldr	r3, .L7+28
 136 0028 1A60     		str	r2, [r3]
 178:main.c        ****     adcCount2 = adcCount;
 137              		.loc 1 178 0
 138 002a 104A     		ldr	r2, .L7+32
 139 002c 1668     		ldr	r6, [r2]
 140 002e 104B     		ldr	r3, .L7+36
 141 0030 1E60     		str	r6, [r3]
 179:main.c        ****     adc1 = 0;
 142              		.loc 1 179 0
 143 0032 0023     		movs	r3, #0
 144 0034 2B60     		str	r3, [r5]
 180:main.c        ****     adc2 = 0;
 145              		.loc 1 180 0
 146 0036 2360     		str	r3, [r4]
 181:main.c        ****     adc3 = 0;
 147              		.loc 1 181 0
 148 0038 0360     		str	r3, [r0]
 182:main.c        ****     adc4 = 0;
 149              		.loc 1 182 0
 150 003a 0B60     		str	r3, [r1]
 183:main.c        ****     adcCount = 0;
 151              		.loc 1 183 0
 152 003c 1360     		str	r3, [r2]
 184:main.c        ****     ADC_ISR_Enable();
 153              		.loc 1 184 0
 154 003e FFF7FEFF 		bl	ADC_ISR_Enable
 155              	.LVL10:
 185:main.c        ****     isDataReady = true;
 156              		.loc 1 185 0
 157 0042 0122     		movs	r2, #1
ARM GAS  C:\Users\iamna\AppData\Local\Temp\ccyFJAeR.s 			page 7


 158 0044 0B4B     		ldr	r3, .L7+40
 159 0046 1A70     		strb	r2, [r3]
 160 0048 70BD     		pop	{r4, r5, r6, pc}
 161              	.L8:
 162 004a 00BF     		.align	2
 163              	.L7:
 164 004c 00000000 		.word	adc1
 165 0050 00000000 		.word	TotalADC1
 166 0054 00000000 		.word	adc2
 167 0058 00000000 		.word	TotalADC2
 168 005c 00000000 		.word	adc3
 169 0060 00000000 		.word	TotalADC3
 170 0064 00000000 		.word	adc4
 171 0068 00000000 		.word	TotalADC4
 172 006c 00000000 		.word	adcCount
 173 0070 00000000 		.word	adcCount2
 174 0074 00000000 		.word	.LANCHOR0
 175              		.cfi_endproc
 176              	.LFE67:
 177              		.size	TimerInterruptHandler, .-TimerInterruptHandler
 178              		.section	.text.calculateTemp,"ax",%progbits
 179              		.align	2
 180              		.global	calculateTemp
 181              		.thumb
 182              		.thumb_func
 183              		.type	calculateTemp, %function
 184              	calculateTemp:
 185              	.LFB65:
 151:main.c        ****     temp1 = (TotalADC1/adcCount2)/10;
 186              		.loc 1 151 0
 187              		.cfi_startproc
 188              		@ args = 0, pretend = 0, frame = 0
 189              		@ frame_needed = 0, uses_anonymous_args = 0
 190              		@ link register save eliminated.
 152:main.c        ****     temp2 = (TotalADC2/adcCount2)/10;
 191              		.loc 1 152 0
 192 0000 134B     		ldr	r3, .L10
 193 0002 1B68     		ldr	r3, [r3]
 194 0004 134A     		ldr	r2, .L10+4
 195 0006 1268     		ldr	r2, [r2]
 196 0008 B2FBF3F2 		udiv	r2, r2, r3
 197 000c 1249     		ldr	r1, .L10+8
 198 000e A1FB0202 		umull	r0, r2, r1, r2
 199 0012 D208     		lsrs	r2, r2, #3
 200 0014 1148     		ldr	r0, .L10+12
 201 0016 0270     		strb	r2, [r0]
 153:main.c        ****     temp3 = (TotalADC3/adcCount2)/10;
 202              		.loc 1 153 0
 203 0018 114A     		ldr	r2, .L10+16
 204 001a 1268     		ldr	r2, [r2]
 205 001c B2FBF3F2 		udiv	r2, r2, r3
 206 0020 A1FB0202 		umull	r0, r2, r1, r2
 207 0024 D208     		lsrs	r2, r2, #3
 208 0026 0F48     		ldr	r0, .L10+20
 209 0028 0270     		strb	r2, [r0]
 154:main.c        ****     temp4 = (TotalADC4/adcCount2)/10;
 210              		.loc 1 154 0
ARM GAS  C:\Users\iamna\AppData\Local\Temp\ccyFJAeR.s 			page 8


 211 002a 0F4A     		ldr	r2, .L10+24
 212 002c 1268     		ldr	r2, [r2]
 213 002e B2FBF3F2 		udiv	r2, r2, r3
 214 0032 A1FB0202 		umull	r0, r2, r1, r2
 215 0036 D208     		lsrs	r2, r2, #3
 216 0038 0C48     		ldr	r0, .L10+28
 217 003a 0270     		strb	r2, [r0]
 155:main.c        **** }
 218              		.loc 1 155 0
 219 003c 0C4A     		ldr	r2, .L10+32
 220 003e 1268     		ldr	r2, [r2]
 221 0040 B2FBF3F3 		udiv	r3, r2, r3
 222 0044 A1FB0323 		umull	r2, r3, r1, r3
 223 0048 DB08     		lsrs	r3, r3, #3
 224 004a 0A4A     		ldr	r2, .L10+36
 225 004c 1370     		strb	r3, [r2]
 226 004e 7047     		bx	lr
 227              	.L11:
 228              		.align	2
 229              	.L10:
 230 0050 00000000 		.word	adcCount2
 231 0054 00000000 		.word	TotalADC1
 232 0058 CDCCCCCC 		.word	-858993459
 233 005c 00000000 		.word	temp1
 234 0060 00000000 		.word	TotalADC2
 235 0064 00000000 		.word	temp2
 236 0068 00000000 		.word	TotalADC3
 237 006c 00000000 		.word	temp3
 238 0070 00000000 		.word	TotalADC4
 239 0074 00000000 		.word	temp4
 240              		.cfi_endproc
 241              	.LFE65:
 242              		.size	calculateTemp, .-calculateTemp
 243              		.section	.text.main,"ax",%progbits
 244              		.align	2
 245              		.global	main
 246              		.thumb
 247              		.thumb_func
 248              		.type	main, %function
 249              	main:
 250              	.LFB64:
  67:main.c        ****     CyGlobalIntEnable; /* Enable global interrupts. */
 251              		.loc 1 67 0
 252              		.cfi_startproc
 253              		@ args = 0, pretend = 0, frame = 264
 254              		@ frame_needed = 0, uses_anonymous_args = 0
 255 0000 2DE9F041 		push	{r4, r5, r6, r7, r8, lr}
 256              		.cfi_def_cfa_offset 24
 257              		.cfi_offset 4, -24
 258              		.cfi_offset 5, -20
 259              		.cfi_offset 6, -16
 260              		.cfi_offset 7, -12
 261              		.cfi_offset 8, -8
 262              		.cfi_offset 14, -4
 263 0004 C4B0     		sub	sp, sp, #272
 264              		.cfi_def_cfa_offset 296
  68:main.c        ****     char transmit_buffer[debugebuffer];
ARM GAS  C:\Users\iamna\AppData\Local\Temp\ccyFJAeR.s 			page 9


 265              		.loc 1 68 0
 266              		.syntax unified
 267              	@ 68 "main.c" 1
 268 0006 62B6     		CPSIE   i
 269              	@ 0 "" 2
  70:main.c        ****     int count = 0;
 270              		.loc 1 70 0
 271              		.thumb
 272              		.syntax unified
 273 0008 0024     		movs	r4, #0
 274 000a 0394     		str	r4, [sp, #12]
 275              	.LVL11:
  73:main.c        ****     ADC_SAR_Seq_1_Start();
 276              		.loc 1 73 0
 277 000c FFF7FEFF 		bl	UART_1_Start
 278              	.LVL12:
  74:main.c        ****     Timer_Start();
 279              		.loc 1 74 0
 280 0010 FFF7FEFF 		bl	ADC_SAR_Seq_1_Start
 281              	.LVL13:
  75:main.c        ****     EZI2C_Start();
 282              		.loc 1 75 0
 283 0014 FFF7FEFF 		bl	Timer_Start
 284              	.LVL14:
  76:main.c        ****     memset(&ezi2cBuffer, 0, sizeof(ezi2cBuffer));
 285              		.loc 1 76 0
 286 0018 FFF7FEFF 		bl	EZI2C_Start
 287              	.LVL15:
  77:main.c        ****     
 288              		.loc 1 77 0
 289 001c 2822     		movs	r2, #40
 290 001e 2146     		mov	r1, r4
 291 0020 2348     		ldr	r0, .L19
 292 0022 FFF7FEFF 		bl	memset
 293              	.LVL16:
  81:main.c        **** #endif
 294              		.loc 1 81 0
 295 0026 03AA     		add	r2, sp, #12
 296 0028 2146     		mov	r1, r4
 297 002a 0420     		movs	r0, #4
 298 002c FFF7FEFF 		bl	EZI2C_SetBuffer1
 299              	.LVL17:
  89:main.c        ****     ADC_ISR_StartEx(ADCInterruptHandler);
 300              		.loc 1 89 0
 301 0030 FFF7FEFF 		bl	ADC_SAR_Seq_1_StartConvert
 302              	.LVL18:
  90:main.c        ****     Timer_ISR_StartEx(TimerInterruptHandler);
 303              		.loc 1 90 0
 304 0034 1F48     		ldr	r0, .L19+4
 305 0036 FFF7FEFF 		bl	ADC_ISR_StartEx
 306              	.LVL19:
  91:main.c        ****    
 307              		.loc 1 91 0
 308 003a 1F48     		ldr	r0, .L19+8
 309 003c FFF7FEFF 		bl	Timer_ISR_StartEx
 310              	.LVL20:
  93:main.c        ****     for(;;)
ARM GAS  C:\Users\iamna\AppData\Local\Temp\ccyFJAeR.s 			page 10


 311              		.loc 1 93 0
 312 0040 1E48     		ldr	r0, .L19+12
 313 0042 FFF7FEFF 		bl	UART_1_PutString
 314              	.LVL21:
 315 0046 00E0     		b	.L14
 316              	.LVL22:
 317              	.L17:
 117:main.c        **** #endif    
 318              		.loc 1 117 0
 319 0048 0024     		movs	r4, #0
 320              	.LVL23:
 321              	.L14:
 100:main.c        ****             isDataReady = false;
 322              		.loc 1 100 0
 323 004a 1D4B     		ldr	r3, .L19+16
 324 004c 1B78     		ldrb	r3, [r3]	@ zero_extendqisi2
 325 004e 002B     		cmp	r3, #0
 326 0050 FBD0     		beq	.L14
 101:main.c        ****             calculateTemp();
 327              		.loc 1 101 0
 328 0052 0022     		movs	r2, #0
 329 0054 1A4B     		ldr	r3, .L19+16
 330 0056 1A70     		strb	r2, [r3]
 102:main.c        ****             sprintf(transmit_buffer,"Temp1: %d C Temp2: %d C Temp3: %d C Temp4: %d C\r\n", 
 331              		.loc 1 102 0
 332 0058 FFF7FEFF 		bl	calculateTemp
 333              	.LVL24:
 103:main.c        ****                 temp1, temp2, temp3, temp4);
 334              		.loc 1 103 0
 335 005c DFF87480 		ldr	r8, .L19+36
 336 0060 98F80030 		ldrb	r3, [r8]	@ zero_extendqisi2
 337 0064 174D     		ldr	r5, .L19+20
 338 0066 2A78     		ldrb	r2, [r5]	@ zero_extendqisi2
 339 0068 174E     		ldr	r6, .L19+24
 340 006a 3178     		ldrb	r1, [r6]	@ zero_extendqisi2
 341 006c 0191     		str	r1, [sp, #4]
 342 006e 174F     		ldr	r7, .L19+28
 343 0070 3978     		ldrb	r1, [r7]	@ zero_extendqisi2
 344 0072 0091     		str	r1, [sp]
 345 0074 1649     		ldr	r1, .L19+32
 346 0076 04A8     		add	r0, sp, #16
 347 0078 FFF7FEFF 		bl	sprintf
 348              	.LVL25:
 105:main.c        ****           
 349              		.loc 1 105 0
 350 007c 04A8     		add	r0, sp, #16
 351 007e FFF7FEFF 		bl	UART_1_PutString
 352              	.LVL26:
 107:main.c        ****             ezi2cBuffer.data1[count]=temp2;
 353              		.loc 1 107 0
 354 0082 2D78     		ldrb	r5, [r5]	@ zero_extendqisi2
 355 0084 0A4B     		ldr	r3, .L19
 356 0086 1D55     		strb	r5, [r3, r4]
 108:main.c        ****             ezi2cBuffer.data2[count]=temp3;
 357              		.loc 1 108 0
 358 0088 98F80000 		ldrb	r0, [r8]	@ zero_extendqisi2
 359 008c 2344     		add	r3, r3, r4
ARM GAS  C:\Users\iamna\AppData\Local\Temp\ccyFJAeR.s 			page 11


 360 008e 9872     		strb	r0, [r3, #10]
 109:main.c        ****             ezi2cBuffer.data3[count]=temp4;
 361              		.loc 1 109 0
 362 0090 3978     		ldrb	r1, [r7]	@ zero_extendqisi2
 363 0092 1975     		strb	r1, [r3, #20]
 110:main.c        ****      
 364              		.loc 1 110 0
 365 0094 3278     		ldrb	r2, [r6]	@ zero_extendqisi2
 366 0096 9A77     		strb	r2, [r3, #30]
 112:main.c        ****             i2cbuf[1] = ezi2cBuffer.data1[count];
 367              		.loc 1 112 0
 368 0098 8DF80C50 		strb	r5, [sp, #12]
 113:main.c        ****             i2cbuf[2] = ezi2cBuffer.data2[count];
 369              		.loc 1 113 0
 370 009c 8DF80D00 		strb	r0, [sp, #13]
 114:main.c        ****             i2cbuf[3] = ezi2cBuffer.data3[count];
 371              		.loc 1 114 0
 372 00a0 8DF80E10 		strb	r1, [sp, #14]
 115:main.c        ****             count++;
 373              		.loc 1 115 0
 374 00a4 8DF80F20 		strb	r2, [sp, #15]
 116:main.c        ****             if ( count > 10) count = 0;
 375              		.loc 1 116 0
 376 00a8 0134     		adds	r4, r4, #1
 377              	.LVL27:
 117:main.c        **** #endif    
 378              		.loc 1 117 0
 379 00aa 0A2C     		cmp	r4, #10
 380 00ac CCDC     		bgt	.L17
 381 00ae CCE7     		b	.L14
 382              	.L20:
 383              		.align	2
 384              	.L19:
 385 00b0 00000000 		.word	ezi2cBuffer
 386 00b4 00000000 		.word	ADCInterruptHandler
 387 00b8 00000000 		.word	TimerInterruptHandler
 388 00bc 00000000 		.word	.LC0
 389 00c0 00000000 		.word	.LANCHOR0
 390 00c4 00000000 		.word	temp1
 391 00c8 00000000 		.word	temp4
 392 00cc 00000000 		.word	temp3
 393 00d0 10000000 		.word	.LC1
 394 00d4 00000000 		.word	temp2
 395              		.cfi_endproc
 396              	.LFE64:
 397              		.size	main, .-main
 398              		.comm	ezi2cBuffer,40,4
 399              		.comm	temp4,1,1
 400              		.comm	temp3,1,1
 401              		.comm	temp2,1,1
 402              		.comm	temp1,1,1
 403              		.comm	adcCount2,4,4
 404              		.comm	TotalADC4,4,4
 405              		.comm	TotalADC3,4,4
 406              		.comm	TotalADC2,4,4
 407              		.comm	TotalADC1,4,4
 408              		.comm	adcCount,4,4
ARM GAS  C:\Users\iamna\AppData\Local\Temp\ccyFJAeR.s 			page 12


 409              		.comm	adc4,4,4
 410              		.comm	adc3,4,4
 411              		.comm	adc2,4,4
 412              		.comm	adc1,4,4
 413              		.global	isDataReady
 414              		.section	.rodata.str1.4,"aMS",%progbits,1
 415              		.align	2
 416              	.LC0:
 417 0000 434F4D20 		.ascii	"COM Port Open\015\012\000"
 417      506F7274 
 417      204F7065 
 417      6E0D0A00 
 418              	.LC1:
 419 0010 54656D70 		.ascii	"Temp1: %d C Temp2: %d C Temp3: %d C Temp4: %d C\015"
 419      313A2025 
 419      64204320 
 419      54656D70 
 419      323A2025 
 420 0040 0A00     		.ascii	"\012\000"
 421              		.bss
 422              		.set	.LANCHOR0,. + 0
 423              		.type	isDataReady, %object
 424              		.size	isDataReady, 1
 425              	isDataReady:
 426 0000 00       		.space	1
 427              		.text
 428              	.Letext0:
 429              		.file 2 "c:\\program files (x86)\\cypress\\psoc creator\\4.4\\psoc creator\\import\\gnu\\arm\\5.4.
 430              		.file 3 "c:\\program files (x86)\\cypress\\psoc creator\\4.4\\psoc creator\\import\\gnu\\arm\\5.4.
 431              		.file 4 "Generated_Source\\PSoC5/cytypes.h"
 432              		.file 5 "Generated_Source\\PSoC5/core_cm3.h"
 433              		.file 6 "Generated_Source\\PSoC5/ADC_SAR_Seq_1.h"
 434              		.file 7 "Generated_Source\\PSoC5/Timer.h"
 435              		.file 8 "Generated_Source\\PSoC5/ADC_ISR.h"
 436              		.file 9 "Generated_Source\\PSoC5/UART_1.h"
 437              		.file 10 "Generated_Source\\PSoC5/EZI2C.h"
 438              		.file 11 "Generated_Source\\PSoC5/Timer_ISR.h"
 439              		.file 12 "c:\\program files (x86)\\cypress\\psoc creator\\4.4\\psoc creator\\import\\gnu\\arm\\5.4