ARM GAS  C:\Users\iamna\AppData\Local\Temp\ccXVP7IR.s 			page 1


   1              		.syntax unified
   2              		.cpu cortex-m3
   3              		.fpu softvfp
   4              		.eabi_attribute 20, 1
   5              		.eabi_attribute 21, 1
   6              		.eabi_attribute 23, 3
   7              		.eabi_attribute 24, 1
   8              		.eabi_attribute 25, 1
   9              		.eabi_attribute 26, 1
  10              		.eabi_attribute 30, 6
  11              		.eabi_attribute 34, 1
  12              		.eabi_attribute 18, 4
  13              		.thumb
  14              		.syntax unified
  15              		.file	"main.c"
  16              		.text
  17              	.Ltext0:
  18              		.cfi_sections	.debug_frame
  19              		.global	isDataReady
  20              		.bss
  21              		.type	isDataReady, %object
  22              		.size	isDataReady, 1
  23              	isDataReady:
  24 0000 00       		.space	1
  25              		.global	voltageSum
  26 0001 000000   		.align	2
  27              		.type	voltageSum, %object
  28              		.size	voltageSum, 4
  29              	voltageSum:
  30 0004 00000000 		.space	4
  31              		.global	sampleCount
  32              		.align	2
  33              		.type	sampleCount, %object
  34              		.size	sampleCount, 4
  35              	sampleCount:
  36 0008 00000000 		.space	4
  37              		.global	voltageSumIsr
  38              		.align	2
  39              		.type	voltageSumIsr, %object
  40              		.size	voltageSumIsr, 4
  41              	voltageSumIsr:
  42 000c 00000000 		.space	4
  43              		.global	sampleCountIsr
  44              		.align	2
  45              		.type	sampleCountIsr, %object
  46              		.size	sampleCountIsr, 4
  47              	sampleCountIsr:
  48 0010 00000000 		.space	4
  49              		.global	temperature
  50              		.align	2
  51              		.type	temperature, %object
  52              		.size	temperature, 4
  53              	temperature:
  54 0014 00000000 		.space	4
  55              		.comm	averageVoltage,4,4
  56              		.global	TC74Value
  57              		.align	1
ARM GAS  C:\Users\iamna\AppData\Local\Temp\ccXVP7IR.s 			page 2


  58              		.type	TC74Value, %object
  59              		.size	TC74Value, 2
  60              	TC74Value:
  61 0018 0000     		.space	2
  62              		.global	SPIMValue
  63              		.align	1
  64              		.type	SPIMValue, %object
  65              		.size	SPIMValue, 2
  66              	SPIMValue:
  67 001a 0000     		.space	2
  68              		.section	.rodata
  69              		.align	2
  70              	.LC0:
  71 0000 434F4D20 		.ascii	"COM Port Open\015\012\000"
  71      506F7274 
  71      204F7065 
  71      6E0D0A00 
  72              		.section	.text.main,"ax",%progbits
  73              		.align	2
  74              		.global	main
  75              		.thumb
  76              		.thumb_func
  77              		.type	main, %function
  78              	main:
  79              	.LFB64:
  80              		.file 1 "main.c"
   1:main.c        **** /* ========================================
   2:main.c        ****  *
   3:main.c        ****  * Copyright: Nadim Ahmed, Metropolia University of Applied Science, Finland, 2024
   4:main.c        ****  * 
   5:main.c        ****  * April 18, 2024
   6:main.c        ****  *
   7:main.c        ****  * PSoC Design Course 2024: Exercise 4, SPI & I2C
   8:main.c        ****  *
   9:main.c        ****  * Data acquisition from temperature sensor using SPI and I2C, 
  10:main.c        ****  * send the temperature through Uart and twice in a second
  11:main.c        ****  *
  12:main.c        ****  * CC-NA-SA 4.0
  13:main.c        ****  *
  14:main.c        ****  * ========================================
  15:main.c        **** */
  16:main.c        **** 
  17:main.c        **** #include <project.h>
  18:main.c        **** #include "stdio.h"
  19:main.c        **** #include "stdbool.h"
  20:main.c        **** /* Project Defines */
  21:main.c        **** #define Data_Buffer_SIZE 64
  22:main.c        **** #define TC74Address 0b1001010
  23:main.c        **** 
  24:main.c        **** /* Global variables */
  25:main.c        **** bool isDataReady = false;   
  26:main.c        **** uint32_t voltageSum = 0;
  27:main.c        **** uint32_t sampleCount = 0;
  28:main.c        **** uint32_t voltageSumIsr = 0;
  29:main.c        **** uint32_t sampleCountIsr = 0;
  30:main.c        **** float32 temperature = 0;
  31:main.c        **** float32 averageVoltage;
ARM GAS  C:\Users\iamna\AppData\Local\Temp\ccXVP7IR.s 			page 3


  32:main.c        **** uint16 TC74Value = 0;
  33:main.c        **** uint16 SPIMValue = 0;
  34:main.c        **** 
  35:main.c        **** /* Function declarations */
  36:main.c        **** void calculateTemperature();
  37:main.c        **** void handleSPI();
  38:main.c        **** uint8_t handleI2C();
  39:main.c        **** void sendDataToUART();
  40:main.c        **** 
  41:main.c        **** /* Interrupt declarations */
  42:main.c        **** CY_ISR_PROTO(ADCInterruptHandler);
  43:main.c        **** CY_ISR(TimerInterruptHandler);
  44:main.c        **** 
  45:main.c        **** int main()
  46:main.c        **** {
  81              		.loc 1 46 0
  82              		.cfi_startproc
  83              		@ args = 0, pretend = 0, frame = 0
  84              		@ frame_needed = 1, uses_anonymous_args = 0
  85 0000 80B5     		push	{r7, lr}
  86              		.cfi_def_cfa_offset 8
  87              		.cfi_offset 7, -8
  88              		.cfi_offset 14, -4
  89 0002 00AF     		add	r7, sp, #0
  90              		.cfi_def_cfa_register 7
  47:main.c        ****     /* Enable global interrupts */
  48:main.c        ****     CyGlobalIntEnable; 
  91              		.loc 1 48 0
  92              		.syntax unified
  93              	@ 48 "main.c" 1
  94 0004 62B6     		CPSIE   i
  95              	@ 0 "" 2
  49:main.c        **** 
  50:main.c        **** 
  51:main.c        ****     /* Start the components and interrupts */
  52:main.c        ****     UART_1_Start();
  96              		.loc 1 52 0
  97              		.thumb
  98              		.syntax unified
  99 0006 FFF7FEFF 		bl	UART_1_Start
  53:main.c        ****     SPIM_1_Start();
 100              		.loc 1 53 0
 101 000a FFF7FEFF 		bl	SPIM_1_Start
  54:main.c        ****     I2C_1_Start();
 102              		.loc 1 54 0
 103 000e FFF7FEFF 		bl	I2C_1_Start
  55:main.c        ****     ADC_DelSig_1_Start();
 104              		.loc 1 55 0
 105 0012 FFF7FEFF 		bl	ADC_DelSig_1_Start
  56:main.c        ****     Timer_Start();
 106              		.loc 1 56 0
 107 0016 FFF7FEFF 		bl	Timer_Start
  57:main.c        ****     
  58:main.c        ****     ADC_isr_StartEx(ADCInterruptHandler);
 108              		.loc 1 58 0
 109 001a 0F48     		ldr	r0, .L4
 110 001c FFF7FEFF 		bl	ADC_isr_StartEx
ARM GAS  C:\Users\iamna\AppData\Local\Temp\ccXVP7IR.s 			page 4


  59:main.c        ****     Timer_isr_StartEx(TimerInterruptHandler);
 111              		.loc 1 59 0
 112 0020 0E48     		ldr	r0, .L4+4
 113 0022 FFF7FEFF 		bl	Timer_isr_StartEx
  60:main.c        **** 
  61:main.c        ****     /* Send message to verify COM port is connected properly */
  62:main.c        ****     UART_1_PutString("COM Port Open\r\n");    
 114              		.loc 1 62 0
 115 0026 0E48     		ldr	r0, .L4+8
 116 0028 FFF7FEFF 		bl	UART_1_PutString
  63:main.c        ****     
  64:main.c        ****     /* Start the ADC conversion */
  65:main.c        ****     ADC_DelSig_1_StartConvert();
 117              		.loc 1 65 0
 118 002c FFF7FEFF 		bl	ADC_DelSig_1_StartConvert
 119              	.L3:
  66:main.c        **** 
  67:main.c        ****     for(;;)
  68:main.c        ****     {   
  69:main.c        ****          if (isDataReady) {
 120              		.loc 1 69 0
 121 0030 0C4B     		ldr	r3, .L4+12
 122 0032 1B78     		ldrb	r3, [r3]	@ zero_extendqisi2
 123 0034 002B     		cmp	r3, #0
 124 0036 FBD0     		beq	.L3
  70:main.c        ****             handleSPI();
 125              		.loc 1 70 0
 126 0038 FFF7FEFF 		bl	handleSPI
  71:main.c        ****             TC74Value = handleI2C();
 127              		.loc 1 71 0
 128 003c FFF7FEFF 		bl	handleI2C
 129 0040 0346     		mov	r3, r0
 130 0042 9AB2     		uxth	r2, r3
 131 0044 084B     		ldr	r3, .L4+16
 132 0046 1A80     		strh	r2, [r3]	@ movhi
  72:main.c        ****             calculateTemperature();
 133              		.loc 1 72 0
 134 0048 FFF7FEFF 		bl	calculateTemperature
  73:main.c        ****             sendDataToUART();
 135              		.loc 1 73 0
 136 004c FFF7FEFF 		bl	sendDataToUART
  74:main.c        ****             isDataReady = false;  
 137              		.loc 1 74 0
 138 0050 044B     		ldr	r3, .L4+12
 139 0052 0022     		movs	r2, #0
 140 0054 1A70     		strb	r2, [r3]
  75:main.c        ****         }
  76:main.c        ****     }
 141              		.loc 1 76 0
 142 0056 EBE7     		b	.L3
 143              	.L5:
 144              		.align	2
 145              	.L4:
 146 0058 00000000 		.word	ADCInterruptHandler
 147 005c 00000000 		.word	TimerInterruptHandler
 148 0060 00000000 		.word	.LC0
 149 0064 00000000 		.word	isDataReady
ARM GAS  C:\Users\iamna\AppData\Local\Temp\ccXVP7IR.s 			page 5


 150 0068 00000000 		.word	TC74Value
 151              		.cfi_endproc
 152              	.LFE64:
 153              		.size	main, .-main
 154              		.section	.text.handleSPI,"ax",%progbits
 155              		.align	2
 156              		.global	handleSPI
 157              		.thumb
 158              		.thumb_func
 159              		.type	handleSPI, %function
 160              	handleSPI:
 161              	.LFB65:
  77:main.c        **** }
  78:main.c        **** 
  79:main.c        **** 
  80:main.c        **** /* Function to handle SPI data */
  81:main.c        **** void handleSPI() {
 162              		.loc 1 81 0
 163              		.cfi_startproc
 164              		@ args = 0, pretend = 0, frame = 0
 165              		@ frame_needed = 1, uses_anonymous_args = 0
 166 0000 80B5     		push	{r7, lr}
 167              		.cfi_def_cfa_offset 8
 168              		.cfi_offset 7, -8
 169              		.cfi_offset 14, -4
 170 0002 00AF     		add	r7, sp, #0
 171              		.cfi_def_cfa_register 7
  82:main.c        ****     SPIM_1_WriteTxData(SPIMValue);
 172              		.loc 1 82 0
 173 0004 0A4B     		ldr	r3, .L7
 174 0006 1B88     		ldrh	r3, [r3]
 175 0008 1846     		mov	r0, r3
 176 000a FFF7FEFF 		bl	SPIM_1_WriteTxData
  83:main.c        ****     SPIMValue = SPIM_1_ReadRxData();
 177              		.loc 1 83 0
 178 000e FFF7FEFF 		bl	SPIM_1_ReadRxData
 179 0012 0346     		mov	r3, r0
 180 0014 1A46     		mov	r2, r3
 181 0016 064B     		ldr	r3, .L7
 182 0018 1A80     		strh	r2, [r3]	@ movhi
  84:main.c        ****     SPIMValue = (SPIMValue >> 1) & 0x07FF; 
 183              		.loc 1 84 0
 184 001a 054B     		ldr	r3, .L7
 185 001c 1B88     		ldrh	r3, [r3]
 186 001e 5B08     		lsrs	r3, r3, #1
 187 0020 9BB2     		uxth	r3, r3
 188 0022 C3F30A03 		ubfx	r3, r3, #0, #11
 189 0026 9AB2     		uxth	r2, r3
 190 0028 014B     		ldr	r3, .L7
 191 002a 1A80     		strh	r2, [r3]	@ movhi
  85:main.c        **** }
 192              		.loc 1 85 0
 193 002c 00BF     		nop
 194 002e 80BD     		pop	{r7, pc}
 195              	.L8:
 196              		.align	2
 197              	.L7:
ARM GAS  C:\Users\iamna\AppData\Local\Temp\ccXVP7IR.s 			page 6


 198 0030 00000000 		.word	SPIMValue
 199              		.cfi_endproc
 200              	.LFE65:
 201              		.size	handleSPI, .-handleSPI
 202              		.section	.text.handleI2C,"ax",%progbits
 203              		.align	2
 204              		.global	handleI2C
 205              		.thumb
 206              		.thumb_func
 207              		.type	handleI2C, %function
 208              	handleI2C:
 209              	.LFB66:
  86:main.c        **** 
  87:main.c        **** /* Function to handle I2C communication */
  88:main.c        **** uint8_t handleI2C() {
 210              		.loc 1 88 0
 211              		.cfi_startproc
 212              		@ args = 0, pretend = 0, frame = 0
 213              		@ frame_needed = 1, uses_anonymous_args = 0
 214 0000 80B5     		push	{r7, lr}
 215              		.cfi_def_cfa_offset 8
 216              		.cfi_offset 7, -8
 217              		.cfi_offset 14, -4
 218 0002 00AF     		add	r7, sp, #0
 219              		.cfi_def_cfa_register 7
  89:main.c        ****     I2C_1_MasterSendStart(TC74Address, I2C_1_WRITE_XFER_MODE);
 220              		.loc 1 89 0
 221 0004 0021     		movs	r1, #0
 222 0006 4A20     		movs	r0, #74
 223 0008 FFF7FEFF 		bl	I2C_1_MasterSendStart
  90:main.c        ****     I2C_1_MasterWriteByte(0x00);
 224              		.loc 1 90 0
 225 000c 0020     		movs	r0, #0
 226 000e FFF7FEFF 		bl	I2C_1_MasterWriteByte
  91:main.c        ****     I2C_1_MasterSendRestart(TC74Address, I2C_1_READ_XFER_MODE);      
 227              		.loc 1 91 0
 228 0012 0121     		movs	r1, #1
 229 0014 4A20     		movs	r0, #74
 230 0016 FFF7FEFF 		bl	I2C_1_MasterSendRestart
  92:main.c        ****     TC74Value = I2C_1_MasterReadByte(I2C_1_NAK_DATA);     
 231              		.loc 1 92 0
 232 001a 0020     		movs	r0, #0
 233 001c FFF7FEFF 		bl	I2C_1_MasterReadByte
 234 0020 0346     		mov	r3, r0
 235 0022 9AB2     		uxth	r2, r3
 236 0024 044B     		ldr	r3, .L11
 237 0026 1A80     		strh	r2, [r3]	@ movhi
  93:main.c        ****     I2C_1_MasterSendStop();
 238              		.loc 1 93 0
 239 0028 FFF7FEFF 		bl	I2C_1_MasterSendStop
  94:main.c        ****     return TC74Value;
 240              		.loc 1 94 0
 241 002c 024B     		ldr	r3, .L11
 242 002e 1B88     		ldrh	r3, [r3]
 243 0030 DBB2     		uxtb	r3, r3
  95:main.c        **** }
 244              		.loc 1 95 0
ARM GAS  C:\Users\iamna\AppData\Local\Temp\ccXVP7IR.s 			page 7


 245 0032 1846     		mov	r0, r3
 246 0034 80BD     		pop	{r7, pc}
 247              	.L12:
 248 0036 00BF     		.align	2
 249              	.L11:
 250 0038 00000000 		.word	TC74Value
 251              		.cfi_endproc
 252              	.LFE66:
 253              		.size	handleI2C, .-handleI2C
 254              		.global	__aeabi_f2iz
 255              		.section	.rodata
 256              		.align	2
 257              	.LC1:
 258 0010 7B202241 		.ascii	"{ \"ADC\": %d , \"LM35\": %d, \"TC74\": %d, \"SPI\""
 258      4443223A 
 258      20256420 
 258      2C20224C 
 258      4D333522 
 259 003b 3A202564 		.ascii	": %d }\015\012\000"
 259      207D0D0A 
 259      00
 260              		.section	.text.sendDataToUART,"ax",%progbits
 261              		.align	2
 262              		.global	sendDataToUART
 263              		.thumb
 264              		.thumb_func
 265              		.type	sendDataToUART, %function
 266              	sendDataToUART:
 267              	.LFB67:
  96:main.c        **** 
  97:main.c        **** /* Function to send data to UART */
  98:main.c        **** void sendDataToUART() {
 268              		.loc 1 98 0
 269              		.cfi_startproc
 270              		@ args = 0, pretend = 0, frame = 64
 271              		@ frame_needed = 1, uses_anonymous_args = 0
 272 0000 B0B5     		push	{r4, r5, r7, lr}
 273              		.cfi_def_cfa_offset 16
 274              		.cfi_offset 4, -16
 275              		.cfi_offset 5, -12
 276              		.cfi_offset 7, -8
 277              		.cfi_offset 14, -4
 278 0002 92B0     		sub	sp, sp, #72
 279              		.cfi_def_cfa_offset 88
 280 0004 02AF     		add	r7, sp, #8
 281              		.cfi_def_cfa 7, 80
  99:main.c        ****     /* Format data */ 
 100:main.c        ****     char Data_Buffer[Data_Buffer_SIZE];
 101:main.c        ****     sprintf(Data_Buffer, 
 282              		.loc 1 101 0
 283 0006 134B     		ldr	r3, .L14
 284 0008 1B68     		ldr	r3, [r3]	@ float
 285 000a 1846     		mov	r0, r3
 286 000c FFF7FEFF 		bl	__aeabi_f2iz
 287 0010 0446     		mov	r4, r0
 288 0012 114B     		ldr	r3, .L14+4
 289 0014 1B68     		ldr	r3, [r3]	@ float
ARM GAS  C:\Users\iamna\AppData\Local\Temp\ccXVP7IR.s 			page 8


 290 0016 1846     		mov	r0, r3
 291 0018 FFF7FEFF 		bl	__aeabi_f2iz
 292 001c 0546     		mov	r5, r0
 293 001e 0F4B     		ldr	r3, .L14+8
 294 0020 1B88     		ldrh	r3, [r3]
 295 0022 1946     		mov	r1, r3
 296 0024 0E4B     		ldr	r3, .L14+12
 297 0026 1B88     		ldrh	r3, [r3]
 298 0028 0E4A     		ldr	r2, .L14+16
 299 002a A2FB0323 		umull	r2, r3, r2, r3
 300 002e DB08     		lsrs	r3, r3, #3
 301 0030 9BB2     		uxth	r3, r3
 302 0032 3846     		mov	r0, r7
 303 0034 0193     		str	r3, [sp, #4]
 304 0036 0091     		str	r1, [sp]
 305 0038 2B46     		mov	r3, r5
 306 003a 2246     		mov	r2, r4
 307 003c 0A49     		ldr	r1, .L14+20
 308 003e FFF7FEFF 		bl	sprintf
 102:main.c        ****         "{ \"ADC\": %d , \"LM35\": %d, \"TC74\": %d, \"SPI\": %d }\r\n", 
 103:main.c        ****         (int)averageVoltage, (int)temperature, TC74Value, SPIMValue/10 );     
 104:main.c        ****     /* Send data to UART */
 105:main.c        ****     UART_1_PutString(Data_Buffer);
 309              		.loc 1 105 0
 310 0042 3B46     		mov	r3, r7
 311 0044 1846     		mov	r0, r3
 312 0046 FFF7FEFF 		bl	UART_1_PutString
 106:main.c        **** }
 313              		.loc 1 106 0
 314 004a 00BF     		nop
 315 004c 4037     		adds	r7, r7, #64
 316              		.cfi_def_cfa_offset 16
 317 004e BD46     		mov	sp, r7
 318              		.cfi_def_cfa_register 13
 319              		@ sp needed
 320 0050 B0BD     		pop	{r4, r5, r7, pc}
 321              	.L15:
 322 0052 00BF     		.align	2
 323              	.L14:
 324 0054 00000000 		.word	averageVoltage
 325 0058 00000000 		.word	temperature
 326 005c 00000000 		.word	TC74Value
 327 0060 00000000 		.word	SPIMValue
 328 0064 CDCCCCCC 		.word	-858993459
 329 0068 10000000 		.word	.LC1
 330              		.cfi_endproc
 331              	.LFE67:
 332              		.size	sendDataToUART, .-sendDataToUART
 333              		.global	__aeabi_ui2f
 334              		.global	__aeabi_fdiv
 335              		.section	.text.calculateTemperature,"ax",%progbits
 336              		.align	2
 337              		.global	calculateTemperature
 338              		.thumb
 339              		.thumb_func
 340              		.type	calculateTemperature, %function
 341              	calculateTemperature:
ARM GAS  C:\Users\iamna\AppData\Local\Temp\ccXVP7IR.s 			page 9


 342              	.LFB68:
 107:main.c        **** 
 108:main.c        **** /* Function to calculate temperature */
 109:main.c        **** void calculateTemperature() {
 343              		.loc 1 109 0
 344              		.cfi_startproc
 345              		@ args = 0, pretend = 0, frame = 0
 346              		@ frame_needed = 1, uses_anonymous_args = 0
 347 0000 80B5     		push	{r7, lr}
 348              		.cfi_def_cfa_offset 8
 349              		.cfi_offset 7, -8
 350              		.cfi_offset 14, -4
 351 0002 00AF     		add	r7, sp, #0
 352              		.cfi_def_cfa_register 7
 110:main.c        ****     averageVoltage = voltageSumIsr / sampleCountIsr;    
 353              		.loc 1 110 0
 354 0004 0B4B     		ldr	r3, .L17
 355 0006 1A68     		ldr	r2, [r3]
 356 0008 0B4B     		ldr	r3, .L17+4
 357 000a 1B68     		ldr	r3, [r3]
 358 000c B2FBF3F3 		udiv	r3, r2, r3
 359 0010 1846     		mov	r0, r3
 360 0012 FFF7FEFF 		bl	__aeabi_ui2f
 361 0016 0246     		mov	r2, r0
 362 0018 084B     		ldr	r3, .L17+8
 363 001a 1A60     		str	r2, [r3]	@ float
 111:main.c        ****     temperature = averageVoltage / 10; 
 364              		.loc 1 111 0
 365 001c 074B     		ldr	r3, .L17+8
 366 001e 1B68     		ldr	r3, [r3]	@ float
 367 0020 0749     		ldr	r1, .L17+12
 368 0022 1846     		mov	r0, r3
 369 0024 FFF7FEFF 		bl	__aeabi_fdiv
 370 0028 0346     		mov	r3, r0
 371 002a 1A46     		mov	r2, r3
 372 002c 054B     		ldr	r3, .L17+16
 373 002e 1A60     		str	r2, [r3]	@ float
 112:main.c        **** }
 374              		.loc 1 112 0
 375 0030 00BF     		nop
 376 0032 80BD     		pop	{r7, pc}
 377              	.L18:
 378              		.align	2
 379              	.L17:
 380 0034 00000000 		.word	voltageSumIsr
 381 0038 00000000 		.word	sampleCountIsr
 382 003c 00000000 		.word	averageVoltage
 383 0040 00002041 		.word	1092616192
 384 0044 00000000 		.word	temperature
 385              		.cfi_endproc
 386              	.LFE68:
 387              		.size	calculateTemperature, .-calculateTemperature
 388              		.section	.text.ADCInterruptHandler,"ax",%progbits
 389              		.align	2
 390              		.global	ADCInterruptHandler
 391              		.thumb
 392              		.thumb_func
ARM GAS  C:\Users\iamna\AppData\Local\Temp\ccXVP7IR.s 			page 10


 393              		.type	ADCInterruptHandler, %function
 394              	ADCInterruptHandler:
 395              	.LFB69:
 113:main.c        **** 
 114:main.c        **** /* ADC Interrupt Service Routine */
 115:main.c        **** CY_ISR(ADCInterruptHandler) {
 396              		.loc 1 115 0
 397              		.cfi_startproc
 398              		@ args = 0, pretend = 0, frame = 8
 399              		@ frame_needed = 1, uses_anonymous_args = 0
 400 0000 80B5     		push	{r7, lr}
 401              		.cfi_def_cfa_offset 8
 402              		.cfi_offset 7, -8
 403              		.cfi_offset 14, -4
 404 0002 82B0     		sub	sp, sp, #8
 405              		.cfi_def_cfa_offset 16
 406 0004 00AF     		add	r7, sp, #0
 407              		.cfi_def_cfa_register 7
 116:main.c        ****     uint32_t adcOutput = ADC_DelSig_1_CountsTo_mVolts(ADC_DelSig_1_GetResult16());
 408              		.loc 1 116 0
 409 0006 FFF7FEFF 		bl	ADC_DelSig_1_GetResult16
 410 000a 0346     		mov	r3, r0
 411 000c 1846     		mov	r0, r3
 412 000e FFF7FEFF 		bl	ADC_DelSig_1_CountsTo_mVolts
 413 0012 0346     		mov	r3, r0
 414 0014 7B60     		str	r3, [r7, #4]
 117:main.c        ****     voltageSum += adcOutput;
 415              		.loc 1 117 0
 416 0016 074B     		ldr	r3, .L20
 417 0018 1A68     		ldr	r2, [r3]
 418 001a 7B68     		ldr	r3, [r7, #4]
 419 001c 1344     		add	r3, r3, r2
 420 001e 054A     		ldr	r2, .L20
 421 0020 1360     		str	r3, [r2]
 118:main.c        ****     sampleCount++;
 422              		.loc 1 118 0
 423 0022 054B     		ldr	r3, .L20+4
 424 0024 1B68     		ldr	r3, [r3]
 425 0026 0133     		adds	r3, r3, #1
 426 0028 034A     		ldr	r2, .L20+4
 427 002a 1360     		str	r3, [r2]
 119:main.c        **** }
 428              		.loc 1 119 0
 429 002c 00BF     		nop
 430 002e 0837     		adds	r7, r7, #8
 431              		.cfi_def_cfa_offset 8
 432 0030 BD46     		mov	sp, r7
 433              		.cfi_def_cfa_register 13
 434              		@ sp needed
 435 0032 80BD     		pop	{r7, pc}
 436              	.L21:
 437              		.align	2
 438              	.L20:
 439 0034 00000000 		.word	voltageSum
 440 0038 00000000 		.word	sampleCount
 441              		.cfi_endproc
 442              	.LFE69:
ARM GAS  C:\Users\iamna\AppData\Local\Temp\ccXVP7IR.s 			page 11


 443              		.size	ADCInterruptHandler, .-ADCInterruptHandler
 444              		.section	.text.TimerInterruptHandler,"ax",%progbits
 445              		.align	2
 446              		.global	TimerInterruptHandler
 447              		.thumb
 448              		.thumb_func
 449              		.type	TimerInterruptHandler, %function
 450              	TimerInterruptHandler:
 451              	.LFB70:
 120:main.c        **** 
 121:main.c        **** /* Timer Interrupt Service Routine */
 122:main.c        **** CY_ISR(TimerInterruptHandler) {
 452              		.loc 1 122 0
 453              		.cfi_startproc
 454              		@ args = 0, pretend = 0, frame = 0
 455              		@ frame_needed = 1, uses_anonymous_args = 0
 456 0000 80B5     		push	{r7, lr}
 457              		.cfi_def_cfa_offset 8
 458              		.cfi_offset 7, -8
 459              		.cfi_offset 14, -4
 460 0002 00AF     		add	r7, sp, #0
 461              		.cfi_def_cfa_register 7
 123:main.c        ****     Timer_ReadStatusRegister();
 462              		.loc 1 123 0
 463 0004 FFF7FEFF 		bl	Timer_ReadStatusRegister
 124:main.c        ****     ADC_isr_Disable();
 464              		.loc 1 124 0
 465 0008 FFF7FEFF 		bl	ADC_isr_Disable
 125:main.c        ****     voltageSumIsr = voltageSum;
 466              		.loc 1 125 0
 467 000c 0A4B     		ldr	r3, .L23
 468 000e 1B68     		ldr	r3, [r3]
 469 0010 0A4A     		ldr	r2, .L23+4
 470 0012 1360     		str	r3, [r2]
 126:main.c        ****     sampleCountIsr = sampleCount;
 471              		.loc 1 126 0
 472 0014 0A4B     		ldr	r3, .L23+8
 473 0016 1B68     		ldr	r3, [r3]
 474 0018 0A4A     		ldr	r2, .L23+12
 475 001a 1360     		str	r3, [r2]
 127:main.c        ****     voltageSum = 0;
 476              		.loc 1 127 0
 477 001c 064B     		ldr	r3, .L23
 478 001e 0022     		movs	r2, #0
 479 0020 1A60     		str	r2, [r3]
 128:main.c        ****     sampleCount = 0;
 480              		.loc 1 128 0
 481 0022 074B     		ldr	r3, .L23+8
 482 0024 0022     		movs	r2, #0
 483 0026 1A60     		str	r2, [r3]
 129:main.c        ****     ADC_isr_Enable();
 484              		.loc 1 129 0
 485 0028 FFF7FEFF 		bl	ADC_isr_Enable
 130:main.c        ****     isDataReady = true;
 486              		.loc 1 130 0
 487 002c 064B     		ldr	r3, .L23+16
 488 002e 0122     		movs	r2, #1
ARM GAS  C:\Users\iamna\AppData\Local\Temp\ccXVP7IR.s 			page 12


 489 0030 1A70     		strb	r2, [r3]
 131:main.c        **** }
 490              		.loc 1 131 0
 491 0032 00BF     		nop
 492 0034 80BD     		pop	{r7, pc}
 493              	.L24:
 494 0036 00BF     		.align	2
 495              	.L23:
 496 0038 00000000 		.word	voltageSum
 497 003c 00000000 		.word	voltageSumIsr
 498 0040 00000000 		.word	sampleCount
 499 0044 00000000 		.word	sampleCountIsr
 500 0048 00000000 		.word	isDataReady
 501              		.cfi_endproc
 502              	.LFE70:
 503              		.size	TimerInterruptHandler, .-TimerInterruptHandler
 504              		.text
 505              	.Letext0:
 506              		.file 2 "c:\\program files (x86)\\cypress\\psoc creator\\4.4\\psoc creator\\import\\gnu\\arm\\5.4.
 507              		.file 3 "c:\\program files (x86)\\cypress\\psoc creator\\4.4\\psoc creator\\import\\gnu\\arm\\5.4.
 508              		.file 4 "Generated_Source\\PSoC5/cytypes.h"
 509              		.file 5 "Generated_Source\\PSoC5/core_cm3.h"