ARM GAS  C:\Users\iamna\AppData\Local\Temp\ccKvKjOH.s 			page 1


   1              		.syntax unified
   2              		.cpu cortex-m3
   3              		.fpu softvfp
   4              		.eabi_attribute 20, 1
   5              		.eabi_attribute 21, 1
   6              		.eabi_attribute 23, 3
   7              		.eabi_attribute 24, 1
   8              		.eabi_attribute 25, 1
   9              		.eabi_attribute 26, 1
  10              		.eabi_attribute 30, 6
  11              		.eabi_attribute 34, 1
  12              		.eabi_attribute 18, 4
  13              		.thumb
  14              		.syntax unified
  15              		.file	"main.c"
  16              		.text
  17              	.Ltext0:
  18              		.cfi_sections	.debug_frame
  19              		.global	sum_of_voltage
  20              		.bss
  21              		.align	2
  22              		.type	sum_of_voltage, %object
  23              		.size	sum_of_voltage, 4
  24              	sum_of_voltage:
  25 0000 00000000 		.space	4
  26              		.global	count
  27              		.align	2
  28              		.type	count, %object
  29              		.size	count, 4
  30              	count:
  31 0004 00000000 		.space	4
  32              		.comm	voltage,4,4
  33              		.comm	current_tempreture,4,4
  34              		.global	send_data
  35              		.type	send_data, %object
  36              		.size	send_data, 1
  37              	send_data:
  38 0008 00       		.space	1
  39              		.comm	TransmitBuffer,30,4
  40              		.section	.rodata
  41              		.align	2
  42              	.LC0:
  43 0000 434F4D20 		.ascii	"COM Port Open\000"
  43      506F7274 
  43      204F7065 
  43      6E00
  44              		.global	__aeabi_fdiv
  45              		.global	__aeabi_f2d
  46 000e 0000     		.align	2
  47              	.LC1:
  48 0010 7B202241 		.ascii	"{ \"ADC\": %f ,\"LM35\": %.1f}\015\012\000"
  48      4443223A 
  48      20256620 
  48      2C224C4D 
  48      3335223A 
  49              		.section	.text.main,"ax",%progbits
  50              		.align	2
ARM GAS  C:\Users\iamna\AppData\Local\Temp\ccKvKjOH.s 			page 2


  51              		.global	main
  52              		.thumb
  53              		.thumb_func
  54              		.type	main, %function
  55              	main:
  56              	.LFB64:
  57              		.file 1 "main.c"
   1:main.c        **** /******************************************************************************
   2:main.c        **** 
   3:main.c        **** *******************************************************************************/
   4:main.c        **** 
   5:main.c        **** #include <project.h>
   6:main.c        **** #include "stdio.h"
   7:main.c        **** #include "stdbool.h"
   8:main.c        **** 
   9:main.c        **** /* Project Defines */
  10:main.c        **** #define TRANSMIT_BUFFER_SIZE  30
  11:main.c        **** 
  12:main.c        **** CY_ISR_PROTO(ADC_ISR_Function);
  13:main.c        **** CY_ISR(Timer_ISR_Function);
  14:main.c        **** 
  15:main.c        **** void send_Data_to_Uart();
  16:main.c        **** void tempcalc();
  17:main.c        **** 
  18:main.c        **** uint32 sum_of_voltage = 0 ;
  19:main.c        **** uint32 count = 0;
  20:main.c        **** 
  21:main.c        **** float32 voltage;
  22:main.c        **** float32 current_tempreture;
  23:main.c        **** bool send_data = false;
  24:main.c        **** char TransmitBuffer[TRANSMIT_BUFFER_SIZE];
  25:main.c        **** 
  26:main.c        **** int main()
  27:main.c        **** {
  58              		.loc 1 27 0
  59              		.cfi_startproc
  60              		@ args = 0, pretend = 0, frame = 0
  61              		@ frame_needed = 1, uses_anonymous_args = 0
  62 0000 90B5     		push	{r4, r7, lr}
  63              		.cfi_def_cfa_offset 12
  64              		.cfi_offset 4, -12
  65              		.cfi_offset 7, -8
  66              		.cfi_offset 14, -4
  67 0002 83B0     		sub	sp, sp, #12
  68              		.cfi_def_cfa_offset 24
  69 0004 02AF     		add	r7, sp, #8
  70              		.cfi_def_cfa 7, 16
  28:main.c        ****    CyGlobalIntEnable;
  71              		.loc 1 28 0
  72              		.syntax unified
  73              	@ 28 "main.c" 1
  74 0006 62B6     		CPSIE   i
  75              	@ 0 "" 2
  29:main.c        ****     /* Start the components */
  30:main.c        ****     ADC_DelSig_1_Start();
  76              		.loc 1 30 0
  77              		.thumb
ARM GAS  C:\Users\iamna\AppData\Local\Temp\ccKvKjOH.s 			page 3


  78              		.syntax unified
  79 0008 FFF7FEFF 		bl	ADC_DelSig_1_Start
  31:main.c        ****     UART_1_Start();
  80              		.loc 1 31 0
  81 000c FFF7FEFF 		bl	UART_1_Start
  32:main.c        ****     Timer_Start();
  82              		.loc 1 32 0
  83 0010 FFF7FEFF 		bl	Timer_Start
  33:main.c        ****   
  34:main.c        ****     /* Start interrupt */
  35:main.c        ****     ADC_isr_StartEx(ADC_ISR_Function);
  84              		.loc 1 35 0
  85 0014 1548     		ldr	r0, .L4
  86 0016 FFF7FEFF 		bl	ADC_isr_StartEx
  36:main.c        ****     Timer_isr_StartEx(Timer_ISR_Function);
  87              		.loc 1 36 0
  88 001a 1548     		ldr	r0, .L4+4
  89 001c FFF7FEFF 		bl	Timer_isr_StartEx
  37:main.c        ****     
  38:main.c        ****     /* Start the ADC conversion */
  39:main.c        ****     ADC_DelSig_1_StartConvert();
  90              		.loc 1 39 0
  91 0020 FFF7FEFF 		bl	ADC_DelSig_1_StartConvert
  40:main.c        ****     
  41:main.c        ****     /* Send message to verify COM port is connected properly */
  42:main.c        ****     UART_1_PutString("COM Port Open");
  92              		.loc 1 42 0
  93 0024 1348     		ldr	r0, .L4+8
  94 0026 FFF7FEFF 		bl	UART_1_PutString
  95              	.L3:
  43:main.c        ****     
  44:main.c        ****     for(;;)
  45:main.c        ****     {    
  46:main.c        ****        /* Send data through UART */ 
  47:main.c        ****        if(send_data){
  96              		.loc 1 47 0
  97 002a 134B     		ldr	r3, .L4+12
  98 002c 1B78     		ldrb	r3, [r3]	@ zero_extendqisi2
  99 002e 002B     		cmp	r3, #0
 100 0030 FBD0     		beq	.L3
  48:main.c        ****         sprintf(TransmitBuffer, "{ \"ADC\": %f ,\"LM35\": %.1f}\r\n", 0.5, (voltage/10));
 101              		.loc 1 48 0
 102 0032 124B     		ldr	r3, .L4+16
 103 0034 1B68     		ldr	r3, [r3]	@ float
 104 0036 1249     		ldr	r1, .L4+20
 105 0038 1846     		mov	r0, r3
 106 003a FFF7FEFF 		bl	__aeabi_fdiv
 107 003e 0346     		mov	r3, r0
 108 0040 1846     		mov	r0, r3
 109 0042 FFF7FEFF 		bl	__aeabi_f2d
 110 0046 0346     		mov	r3, r0
 111 0048 0C46     		mov	r4, r1
 112 004a CDE90034 		strd	r3, [sp]
 113 004e 4FF00002 		mov	r2, #0
 114 0052 0C4B     		ldr	r3, .L4+24
 115 0054 0C49     		ldr	r1, .L4+28
 116 0056 0D48     		ldr	r0, .L4+32
ARM GAS  C:\Users\iamna\AppData\Local\Temp\ccKvKjOH.s 			page 4


 117 0058 FFF7FEFF 		bl	sprintf
  49:main.c        ****         UART_1_PutString(TransmitBuffer);
 118              		.loc 1 49 0
 119 005c 0B48     		ldr	r0, .L4+32
 120 005e FFF7FEFF 		bl	UART_1_PutString
  50:main.c        ****         send_data = false;
 121              		.loc 1 50 0
 122 0062 054B     		ldr	r3, .L4+12
 123 0064 0022     		movs	r2, #0
 124 0066 1A70     		strb	r2, [r3]
  51:main.c        ****     }
  52:main.c        ****          
  53:main.c        ****     }
 125              		.loc 1 53 0
 126 0068 DFE7     		b	.L3
 127              	.L5:
 128 006a 00BF     		.align	2
 129              	.L4:
 130 006c 00000000 		.word	ADC_ISR_Function
 131 0070 00000000 		.word	Timer_ISR_Function
 132 0074 00000000 		.word	.LC0
 133 0078 00000000 		.word	send_data
 134 007c 00000000 		.word	voltage
 135 0080 00002041 		.word	1092616192
 136 0084 0000E03F 		.word	1071644672
 137 0088 10000000 		.word	.LC1
 138 008c 00000000 		.word	TransmitBuffer
 139              		.cfi_endproc
 140              	.LFE64:
 141              		.size	main, .-main
 142              		.section	.text.ADC_ISR_Function,"ax",%progbits
 143              		.align	2
 144              		.global	ADC_ISR_Function
 145              		.thumb
 146              		.thumb_func
 147              		.type	ADC_ISR_Function, %function
 148              	ADC_ISR_Function:
 149              	.LFB65:
  54:main.c        **** }
  55:main.c        **** /* ADC ISR */
  56:main.c        **** CY_ISR(ADC_ISR_Function){
 150              		.loc 1 56 0
 151              		.cfi_startproc
 152              		@ args = 0, pretend = 0, frame = 8
 153              		@ frame_needed = 1, uses_anonymous_args = 0
 154 0000 80B5     		push	{r7, lr}
 155              		.cfi_def_cfa_offset 8
 156              		.cfi_offset 7, -8
 157              		.cfi_offset 14, -4
 158 0002 82B0     		sub	sp, sp, #8
 159              		.cfi_def_cfa_offset 16
 160 0004 00AF     		add	r7, sp, #0
 161              		.cfi_def_cfa_register 7
  57:main.c        ****    uint32 current_voltage =  ADC_DelSig_1_CountsTo_mVolts(ADC_DelSig_1_GetResult16());
 162              		.loc 1 57 0
 163 0006 FFF7FEFF 		bl	ADC_DelSig_1_GetResult16
 164 000a 0346     		mov	r3, r0
ARM GAS  C:\Users\iamna\AppData\Local\Temp\ccKvKjOH.s 			page 5


 165 000c 1846     		mov	r0, r3
 166 000e FFF7FEFF 		bl	ADC_DelSig_1_CountsTo_mVolts
 167 0012 0346     		mov	r3, r0
 168 0014 7B60     		str	r3, [r7, #4]
  58:main.c        ****    sum_of_voltage += current_voltage;
 169              		.loc 1 58 0
 170 0016 074B     		ldr	r3, .L7
 171 0018 1A68     		ldr	r2, [r3]
 172 001a 7B68     		ldr	r3, [r7, #4]
 173 001c 1344     		add	r3, r3, r2
 174 001e 054A     		ldr	r2, .L7
 175 0020 1360     		str	r3, [r2]
  59:main.c        ****    count++;
 176              		.loc 1 59 0
 177 0022 054B     		ldr	r3, .L7+4
 178 0024 1B68     		ldr	r3, [r3]
 179 0026 0133     		adds	r3, r3, #1
 180 0028 034A     		ldr	r2, .L7+4
 181 002a 1360     		str	r3, [r2]
  60:main.c        **** }
 182              		.loc 1 60 0
 183 002c 00BF     		nop
 184 002e 0837     		adds	r7, r7, #8
 185              		.cfi_def_cfa_offset 8
 186 0030 BD46     		mov	sp, r7
 187              		.cfi_def_cfa_register 13
 188              		@ sp needed
 189 0032 80BD     		pop	{r7, pc}
 190              	.L8:
 191              		.align	2
 192              	.L7:
 193 0034 00000000 		.word	sum_of_voltage
 194 0038 00000000 		.word	count
 195              		.cfi_endproc
 196              	.LFE65:
 197              		.size	ADC_ISR_Function, .-ADC_ISR_Function
 198              		.global	__aeabi_ui2f
 199              		.section	.text.Timer_ISR_Function,"ax",%progbits
 200              		.align	2
 201              		.global	Timer_ISR_Function
 202              		.thumb
 203              		.thumb_func
 204              		.type	Timer_ISR_Function, %function
 205              	Timer_ISR_Function:
 206              	.LFB66:
  61:main.c        **** /* Timer ISR */
  62:main.c        **** CY_ISR(Timer_ISR_Function){
 207              		.loc 1 62 0
 208              		.cfi_startproc
 209              		@ args = 0, pretend = 0, frame = 0
 210              		@ frame_needed = 1, uses_anonymous_args = 0
 211 0000 80B5     		push	{r7, lr}
 212              		.cfi_def_cfa_offset 8
 213              		.cfi_offset 7, -8
 214              		.cfi_offset 14, -4
 215 0002 00AF     		add	r7, sp, #0
 216              		.cfi_def_cfa_register 7
ARM GAS  C:\Users\iamna\AppData\Local\Temp\ccKvKjOH.s 			page 6


  63:main.c        ****     Timer_ReadStatusRegister();
 217              		.loc 1 63 0
 218 0004 FFF7FEFF 		bl	Timer_ReadStatusRegister
  64:main.c        ****     ADC_isr_Disable();
 219              		.loc 1 64 0
 220 0008 FFF7FEFF 		bl	ADC_isr_Disable
  65:main.c        ****     voltage = sum_of_voltage / count;
 221              		.loc 1 65 0
 222 000c 114B     		ldr	r3, .L10
 223 000e 1A68     		ldr	r2, [r3]
 224 0010 114B     		ldr	r3, .L10+4
 225 0012 1B68     		ldr	r3, [r3]
 226 0014 B2FBF3F3 		udiv	r3, r2, r3
 227 0018 1846     		mov	r0, r3
 228 001a FFF7FEFF 		bl	__aeabi_ui2f
 229 001e 0246     		mov	r2, r0
 230 0020 0E4B     		ldr	r3, .L10+8
 231 0022 1A60     		str	r2, [r3]	@ float
  66:main.c        ****     current_tempreture = voltage / 10.0f;
 232              		.loc 1 66 0
 233 0024 0D4B     		ldr	r3, .L10+8
 234 0026 1B68     		ldr	r3, [r3]	@ float
 235 0028 0D49     		ldr	r1, .L10+12
 236 002a 1846     		mov	r0, r3
 237 002c FFF7FEFF 		bl	__aeabi_fdiv
 238 0030 0346     		mov	r3, r0
 239 0032 1A46     		mov	r2, r3
 240 0034 0B4B     		ldr	r3, .L10+16
 241 0036 1A60     		str	r2, [r3]	@ float
  67:main.c        ****     sum_of_voltage = 0;
 242              		.loc 1 67 0
 243 0038 064B     		ldr	r3, .L10
 244 003a 0022     		movs	r2, #0
 245 003c 1A60     		str	r2, [r3]
  68:main.c        ****     count = 0;
 246              		.loc 1 68 0
 247 003e 064B     		ldr	r3, .L10+4
 248 0040 0022     		movs	r2, #0
 249 0042 1A60     		str	r2, [r3]
  69:main.c        ****     ADC_isr_Enable();
 250              		.loc 1 69 0
 251 0044 FFF7FEFF 		bl	ADC_isr_Enable
  70:main.c        ****     send_data = true;
 252              		.loc 1 70 0
 253 0048 074B     		ldr	r3, .L10+20
 254 004a 0122     		movs	r2, #1
 255 004c 1A70     		strb	r2, [r3]
  71:main.c        **** }
 256              		.loc 1 71 0
 257 004e 00BF     		nop
 258 0050 80BD     		pop	{r7, pc}
 259              	.L11:
 260 0052 00BF     		.align	2
 261              	.L10:
 262 0054 00000000 		.word	sum_of_voltage
 263 0058 00000000 		.word	count
 264 005c 00000000 		.word	voltage
ARM GAS  C:\Users\iamna\AppData\Local\Temp\ccKvKjOH.s 			page 7


 265 0060 00002041 		.word	1092616192
 266 0064 00000000 		.word	current_tempreture
 267 0068 00000000 		.word	send_data
 268              		.cfi_endproc
 269              	.LFE66:
 270              		.size	Timer_ISR_Function, .-Timer_ISR_Function
 271              		.text
 272              	.Letext0:
 273              		.file 2 "c:\\program files (x86)\\cypress\\psoc creator\\4.4\\psoc creator\\import\\gnu\\arm\\5.4.
 274              		.file 3 "c:\\program files (x86)\\cypress\\psoc creator\\4.4\\psoc creator\\import\\gnu\\arm\\5.4.
 275              		.file 4 "Generated_Source\\PSoC5/cytypes.h"
 276              		.file 5 "Generated_Source\\PSoC5/core_cm3.h"